 cgamex86

 Timestamp is 52585d12 (Fri Oct 11 16:18:26 2013)

 Preferred load address is 30000000

 Start         Length     Name                   Class
 0001:00000000 0006697aH .text                   CODE
 0001:0006697a 0002f306H .textbss                CODE
 0002:00000000 000096c7H .rdata                  DATA
 0002:000096d0 0000016aH .edata                  DATA
 0003:00000000 00000104H .CRT$XCA                DATA
 0003:00000104 00000104H .CRT$XCZ                DATA
 0003:00000208 00000104H .CRT$XIA                DATA
 0003:0000030c 00000109H .CRT$XIC                DATA
 0003:00000418 00000104H .CRT$XIZ                DATA
 0003:0000051c 00000104H .CRT$XPA                DATA
 0003:00000620 00000104H .CRT$XPX                DATA
 0003:00000724 00000104H .CRT$XPZ                DATA
 0003:00000828 00000104H .CRT$XTA                DATA
 0003:0000092c 00000104H .CRT$XTZ                DATA
 0003:00000a30 00005690H .data                   DATA
 0003:000060c0 006115e0H .bss                    DATA
 0004:00000000 00000014H .idata$2                DATA
 0004:00000014 00000014H .idata$3                DATA
 0004:00000028 0000018cH .idata$4                DATA
 0004:000001b4 0000018cH .idata$5                DATA
 0004:00000340 000006c8H .idata$6                DATA

  Address         Publics by Value              Rva+Base     Lib:Object

 0001:00001890       _BG_FindItemForPowerup     30002890 f   bg_misc.obj
 0001:00001930       _BG_FindItemForHoldable    30002930 f   bg_misc.obj
 0001:000019c0       _BG_FindItemForWeapon      300029c0 f   bg_misc.obj
 0001:00001a30       _BG_FindItem               30002a30 f   bg_misc.obj
 0001:00001a90       _BG_PlayerTouchesItem      30002a90 f   bg_misc.obj
 0001:00001b80       _BG_CanItemBeGrabbed       30002b80 f   bg_misc.obj
 0001:00001e40       _BG_EvaluateTrajectory     30002e40 f   bg_misc.obj
 0001:00002130       _BG_EvaluateTrajectoryDelta 30003130 f   bg_misc.obj
 0001:00002360       _BG_AddPredictableEventToPlayerstate 30003360 f   bg_misc.obj
 0001:00002440       _BG_TouchJumpPad           30003440 f   bg_misc.obj
 0001:00002560       _BG_PlayerStateToEntityState 30003560 f   bg_misc.obj
 0001:00002990       _BG_PlayerStateToEntityStateExtraPolate 30003990 f   bg_misc.obj
 0001:00002de0       _PM_AddEvent               30003de0 f   bg_pmove.obj
 0001:00002e10       _PM_AddTouchEnt            30003e10 f   bg_pmove.obj
 0001:00002ec0       _PM_ClipVelocity           30003ec0 f   bg_pmove.obj
 0001:00002f80       _PM_UpdateViewAngles       30003f80 f   bg_pmove.obj
 0001:000030c0       _PmoveSingle               300040c0 f   bg_pmove.obj
 0001:00007000       _Pmove                     30008000 f   bg_pmove.obj
 0001:00007130       _PM_SlideMove              30008130 f   bg_slidemove.obj
 0001:00007c10       _PM_StepSlideMove          30008c10 f   bg_slidemove.obj
 0001:00008150       _CG_TargetCommand_f        30009150 f   cg_consolecmds.obj
 0001:000086c0       _CG_ConsoleCommand         300096c0 f   cg_consolecmds.obj
 0001:00008740       _CG_InitConsoleCommands    30009740 f   cg_consolecmds.obj
 0001:00008950       _CG_Draw3DModel            30009950 f   cg_draw.obj
 0001:00008b00       _CG_DrawHead               30009b00 f   cg_draw.obj
 0001:00008ca0       _CG_DrawFlagModel          30009ca0 f   cg_draw.obj
 0001:00008e80       _CG_DrawTeamBackground     30009e80 f   cg_draw.obj
 0001:00008f40       _CG_AddLagometerFrameInfo  30009f40 f   cg_draw.obj
 0001:00008f90       _CG_AddLagometerSnapshotInfo 30009f90 f   cg_draw.obj
 0001:00009030       _CG_CenterPrint            3000a030 f   cg_draw.obj
 0001:000090e0       _CG_DrawActive             3000a0e0 f   cg_draw.obj
 0001:0000d520       _CG_AdjustFrom640          3000e520 f   cg_drawtools.obj
 0001:0000d590       _CG_FillRect               3000e590 f   cg_drawtools.obj
 0001:0000d610       _CG_DrawSides              3000e610 f   cg_drawtools.obj
 0001:0000d6c0       _CG_DrawTopBottom          3000e6c0 f   cg_drawtools.obj
 0001:0000d770       _CG_DrawRect               3000e770 f   cg_drawtools.obj
 0001:0000d7f0       _CG_DrawPic                3000e7f0 f   cg_drawtools.obj
 0001:0000d860       _CG_DrawChar               3000e860 f   cg_drawtools.obj
 0001:0000d960       _CG_DrawStringExt          3000e960 f   cg_drawtools.obj
 0001:0000dbc0       _CG_DrawBigString          3000ebc0 f   cg_drawtools.obj
 0001:0000dc20       _CG_DrawBigStringColor     3000ec20 f   cg_drawtools.obj
 0001:0000dc60       _CG_DrawSmallString        3000ec60 f   cg_drawtools.obj
 0001:0000dcc0       _CG_DrawSmallStringColor   3000ecc0 f   cg_drawtools.obj
 0001:0000dd00       _CG_DrawStrlen             3000ed00 f   cg_drawtools.obj
 0001:0000dd90       _CG_TileClear              3000ed90 f   cg_drawtools.obj
 0001:0000df90       _CG_FadeColor              3000ef90 f   cg_drawtools.obj
 0001:0000e050       _CG_TeamColor              3000f050 f   cg_drawtools.obj
 0001:0000e0b0       _CG_GetColorForHealth      3000f0b0 f   cg_drawtools.obj
 0001:0000e200       _CG_ColorForHealth         3000f200 f   cg_drawtools.obj
 0001:0000e250       _UI_DrawBannerString       3000f250 f   cg_drawtools.obj
 0001:0000e5a0       _UI_ProportionalStringWidth 3000f5a0 f   cg_drawtools.obj
 0001:0000e630       _UI_ProportionalSizeScale  3000f630 f   cg_drawtools.obj
 0001:0000e670       _UI_DrawProportionalString 3000f670 f   cg_drawtools.obj
 0001:0000eb40       _CG_BubbleTrail            3000fb40 f   cg_effects.obj
 0001:0000eeb0       _CG_SmokePuff              3000feb0 f   cg_effects.obj
 0001:0000f160       _CG_SpawnEffect            30010160 f   cg_effects.obj
 0001:0000f2c0       _CG_ScorePlum              300102c0 f   cg_effects.obj
 0001:0000f4b0       _CG_MakeExplosion          300104b0 f   cg_effects.obj
 0001:0000f740       _CG_Bleed                  30010740 f   cg_effects.obj
 0001:0000f860       _CG_LaunchGib              30010860 f   cg_effects.obj
 0001:0000f9f0       _CG_GibPlayer              300109f0 f   cg_effects.obj
 0001:000102d0       _CG_LaunchExplode          300112d0 f   cg_effects.obj
 0001:00010460       _CG_BigExplode             30011460 f   cg_effects.obj
 0001:000108e0       _CG_PositionEntityOnTag    300118e0 f   cg_ents.obj
 0001:00010a30       _CG_PositionRotatedEntityOnTag 30011a30 f   cg_ents.obj
 0001:00010b90       _CG_SetEntitySoundPosition 30011b90 f   cg_ents.obj
 0001:00010c50       _CG_Beam                   30011c50 f   cg_ents.obj
 0001:00010d30       _CG_AdjustPositionForMover 30011d30 f   cg_ents.obj
 0001:00010ed0       _CG_AddPacketEntities      30011ed0 f   cg_ents.obj
 0001:00012ac0       _CG_PlaceString            30013ac0 f   cg_event.obj
 0001:00012c60       _CG_PainEvent              30013c60 f   cg_event.obj
 0001:00012d30       _CG_EntityEvent            30013d30 f   cg_event.obj
 0001:00015150       _CG_CheckEvents            30016150 f   cg_event.obj
 0001:00015270       _CG_LoadingString          30016270 f   cg_info.obj
 0001:000152b0       _CG_LoadingItem            300162b0 f   cg_info.obj
 0001:00015340       _CG_LoadingClient          30016340 f   cg_info.obj
 0001:00015590       _CG_DrawInformation        30016590 f   cg_info.obj
 0001:00015c70       _CG_InitLocalEntities      30016c70 f   cg_localents.obj
 0001:00015d10       _CG_FreeLocalEntity        30016d10 f   cg_localents.obj
 0001:00015d80       _CG_AllocLocalEntity       30016d80 f   cg_localents.obj
 0001:00015e20       _CG_BloodTrail             30016e20 f   cg_localents.obj
 0001:00015f20       _CG_FragmentBounceMark     30016f20 f   cg_localents.obj
 0001:00016070       _CG_FragmentBounceSound    30017070 f   cg_localents.obj
 0001:00016120       _CG_ReflectVelocity        30017120 f   cg_localents.obj
 0001:00016300       _CG_AddFragment            30017300 f   cg_localents.obj
 0001:000165d0       _CG_AddFadeRGB             300175d0 f   cg_localents.obj
 0001:000166a0       _CG_AddScorePlum           300176a0 f   cg_localents.obj
 0001:00016c50       _CG_AddLocalEntities       30017c50 f   cg_localents.obj
 0001:000174a0       _vmMain                    300184a0 f   cg_main.obj
 0001:000175d0       _CG_RegisterCvars          300185d0 f   cg_main.obj
 0001:00017710       _CG_UpdateCvars            30018710 f   cg_main.obj
 0001:00017880       _CG_CrosshairPlayer        30018880 f   cg_main.obj
 0001:000178c0       _CG_LastAttacker           300188c0 f   cg_main.obj
 0001:00017900       _CG_Printf                 30018900 f   cg_main.obj
 0001:00017960       _CG_Error                  30018960 f   cg_main.obj
 0001:000179c0       _Com_Error                 300189c0 f   cg_main.obj
 0001:00017a20       _Com_Printf                30018a20 f   cg_main.obj
 0001:00017a80       _CG_Argv                   30018a80 f   cg_main.obj
 0001:00017ac0       _CG_BuildSpectatorString   30018ac0 f   cg_main.obj
 0001:00017ba0       _CG_ConfigString           30018ba0 f   cg_main.obj
 0001:00017bf0       _CG_StartMusic             30018bf0 f   cg_main.obj
 0001:00017c80       _CG_Init                   30018c80 f   cg_main.obj
 0001:000196f0       _CG_Shutdown               3001a6f0 f   cg_main.obj
 0001:00019710       _CG_EventHandling          3001a710 f   cg_main.obj
 0001:00019730       _CG_KeyEvent               3001a730 f   cg_main.obj
 0001:00019750       _CG_MouseEvent             3001a750 f   cg_main.obj
 0001:00019770       _CG_InitMarkPolys          3001a770 f   cg_marks.obj
 0001:00019810       _CG_FreeMarkPoly           3001a810 f   cg_marks.obj
 0001:00019880       _CG_AllocMark              3001a880 f   cg_marks.obj
 0001:00019950       _CG_ImpactMark             3001a950 f   cg_marks.obj
 0001:00019f70       _CG_AddMarks               3001af70 f   cg_marks.obj
 0001:0001a240       _CG_ClearParticles         3001b240 f   cg_marks.obj
 0001:0001a3c0       _CG_AddParticleToScene     3001b3c0 f   cg_marks.obj
 0001:0001cf30       _CG_AddParticles           3001df30 f   cg_marks.obj
 0001:0001d410       _CG_ParticleSnowFlurry     3001e410 f   cg_marks.obj
 0001:0001d780       _CG_ParticleSnow           3001e780 f   cg_marks.obj
 0001:0001da60       _CG_ParticleBubble         3001ea60 f   cg_marks.obj
 0001:0001ddb0       _CG_ParticleSmoke          3001edb0 f   cg_marks.obj
 0001:0001dff0       _CG_ParticleBulletDebris   3001eff0 f   cg_marks.obj
 0001:0001e1b0       _CG_ParticleExplosion      3001f1b0 f   cg_marks.obj
 0001:0001e410       _CG_AddParticleShrapnel    3001f410 f   cg_marks.obj
 0001:0001e430       _CG_NewParticleArea        3001f430 f   cg_marks.obj
 0001:0001e6c0       _CG_SnowLink               3001f6c0 f   cg_marks.obj
 0001:0001e760       _CG_ParticleImpactSmokePuff 3001f760 f   cg_marks.obj
 0001:0001e9a0       _CG_Particle_Bleed         3001f9a0 f   cg_marks.obj
 0001:0001ebb0       _CG_Particle_OilParticle   3001fbb0 f   cg_marks.obj
 0001:0001ede0       _CG_Particle_OilSlick      3001fde0 f   cg_marks.obj
 0001:0001f0c0       _CG_OilSlickRemove         300200c0 f   cg_marks.obj
 0001:0001f170       _ValidBloodPool            30020170 f   cg_marks.obj
 0001:0001f3d0       _CG_BloodPool              300203d0 f   cg_marks.obj
 0001:0001f620       _CG_ParticleBloodCloud     30020620 f   cg_marks.obj
 0001:0001f920       _CG_ParticleSparks         30020920 f   cg_marks.obj
 0001:0001fc80       _CG_ParticleDust           30020c80 f   cg_marks.obj
 0001:00020140       _CG_ParticleMisc           30021140 f   cg_marks.obj
 0001:000202b0       _CG_CustomSound            300212b0 f   cg_players.obj
 0001:000203a0       _CG_NewClientInfo          300213a0 f   cg_players.obj
 0001:00022dc0       _CG_LoadDeferredPlayers    30023dc0 f   cg_players.obj
 0001:00022e70       _CG_AddRefEntityWithPowerups 30023e70 f   cg_players.obj
 0001:00022fa0       _CG_LightVerts             30023fa0 f   cg_players.obj
 0001:00023170       _CG_Player                 30024170 f   cg_players.obj
 0001:00025400       _CG_ResetPlayerEntity      30026400 f   cg_players.obj
 0001:00025700       _CG_CheckAmmo              30026700 f   cg_playerstate.obj
 0001:00025850       _CG_DamageFeedback         30026850 f   cg_playerstate.obj
 0001:00025c30       _CG_Respawn                30026c30 f   cg_playerstate.obj
 0001:00025c80       _CG_CheckPlayerstateEvents 30026c80 f   cg_playerstate.obj
 0001:00025e30       _CG_CheckChangedPredictableEvents 30026e30 f   cg_playerstate.obj
 0001:00025f60       _CG_CheckLocalSounds       30026f60 f   cg_playerstate.obj
 0001:000264f0       _CG_TransitionPlayerState  300274f0 f   cg_playerstate.obj
 0001:00026670       _CG_BuildSolidList         30027670 f   cg_predict.obj
 0001:000267c0       _CG_Trace                  300277c0 f   cg_predict.obj
 0001:00026b20       _CG_PointContents          30027b20 f   cg_predict.obj
 0001:00026c10       _CG_PredictPlayerState     30027c10 f   cg_predict.obj
 0001:000279f0       _CG_DrawOldScoreboard      300289f0 f   cg_scoreboard.obj
 0001:00028a10       _CG_DrawOldTourneyScoreboard 30029a10 f   cg_scoreboard.obj
 0001:00028e60       _CG_ParseServerinfo        30029e60 f   cg_servercmds.obj
 0001:00029080       _CG_SetConfigValues        3002a080 f   cg_servercmds.obj
 0001:00029150       _CG_ShaderStateChanged     3002a150 f   cg_servercmds.obj
 0001:00029380       _CG_ParseVoiceChats        3002a380 f   cg_servercmds.obj
 0001:00029960       _CG_LoadVoiceChats         3002a960 f   cg_servercmds.obj
 0001:00029a70       _CG_HeadModelVoiceChats    3002aa70 f   cg_servercmds.obj
 0001:00029c00       _CG_GetVoiceChat           3002ac00 f   cg_servercmds.obj
 0001:00029d10       _CG_VoiceChatListForClient 3002ad10 f   cg_servercmds.obj
 0001:0002a1a0       _CG_PlayVoiceChat          3002b1a0 f   cg_servercmds.obj
 0001:0002a1c0       _CG_PlayBufferedVoiceChats 3002b1c0 f   cg_servercmds.obj
 0001:0002a1e0       _CG_AddBufferedVoiceChat   3002b1e0 f   cg_servercmds.obj
 0001:0002a200       _CG_VoiceChatLocal         3002b200 f   cg_servercmds.obj
 0001:0002a220       _CG_VoiceChat              3002b220 f   cg_servercmds.obj
 0001:0002a240       _CG_ExecuteNewServerCommands 3002b240 f   cg_servercmds.obj
 0001:0002b4d0       _CG_SetInitialSnapshot     3002c4d0 f   cg_snapshot.obj
 0001:0002b6f0       _CG_ProcessSnapshots       3002c6f0 f   cg_snapshot.obj
 0001:0002be50       _dllEntry                  3002ce50 f   cg_syscalls.obj
 0001:0002be70       _PASSFLOAT                 3002ce70 f   cg_syscalls.obj
 0001:0002be90       _trap_Print                3002ce90 f   cg_syscalls.obj
 0001:0002bec0       _trap_Error                3002cec0 f   cg_syscalls.obj
 0001:0002bef0       _trap_Milliseconds         3002cef0 f   cg_syscalls.obj
 0001:0002bf20       _trap_Cvar_Register        3002cf20 f   cg_syscalls.obj
 0001:0002bf60       _trap_Cvar_Update          3002cf60 f   cg_syscalls.obj
 0001:0002bf90       _trap_Cvar_Set             3002cf90 f   cg_syscalls.obj
 0001:0002bfc0       _trap_Cvar_VariableStringBuffer 3002cfc0 f   cg_syscalls.obj
 0001:0002bff0       _trap_Argc                 3002cff0 f   cg_syscalls.obj
 0001:0002c020       _trap_Argv                 3002d020 f   cg_syscalls.obj
 0001:0002c050       _trap_Args                 3002d050 f   cg_syscalls.obj
 0001:0002c080       _trap_FS_FOpenFile         3002d080 f   cg_syscalls.obj
 0001:0002c0b0       _trap_FS_Read              3002d0b0 f   cg_syscalls.obj
 0001:0002c0e0       _trap_FS_Write             3002d0e0 f   cg_syscalls.obj
 0001:0002c110       _trap_FS_FCloseFile        3002d110 f   cg_syscalls.obj
 0001:0002c140       _trap_FS_Seek              3002d140 f   cg_syscalls.obj
 0001:0002c170       _trap_SendConsoleCommand   3002d170 f   cg_syscalls.obj
 0001:0002c1a0       _trap_AddCommand           3002d1a0 f   cg_syscalls.obj
 0001:0002c1d0       _trap_RemoveCommand        3002d1d0 f   cg_syscalls.obj
 0001:0002c200       _trap_SendClientCommand    3002d200 f   cg_syscalls.obj
 0001:0002c230       _trap_UpdateScreen         3002d230 f   cg_syscalls.obj
 0001:0002c260       _trap_CM_LoadMap           3002d260 f   cg_syscalls.obj
 0001:0002c290       _trap_CM_NumInlineModels   3002d290 f   cg_syscalls.obj
 0001:0002c2c0       _trap_CM_InlineModel       3002d2c0 f   cg_syscalls.obj
 0001:0002c2f0       _trap_CM_TempBoxModel      3002d2f0 f   cg_syscalls.obj
 0001:0002c320       _trap_CM_TempCapsuleModel  3002d320 f   cg_syscalls.obj
 0001:0002c350       _trap_CM_PointContents     3002d350 f   cg_syscalls.obj
 0001:0002c380       _trap_CM_TransformedPointContents 3002d380 f   cg_syscalls.obj
 0001:0002c3c0       _trap_CM_BoxTrace          3002d3c0 f   cg_syscalls.obj
 0001:0002c410       _trap_CM_CapsuleTrace      3002d410 f   cg_syscalls.obj
 0001:0002c460       _trap_CM_TransformedBoxTrace 3002d460 f   cg_syscalls.obj
 0001:0002c4b0       _trap_CM_TransformedCapsuleTrace 3002d4b0 f   cg_syscalls.obj
 0001:0002c500       _trap_CM_MarkFragments     3002d500 f   cg_syscalls.obj
 0001:0002c550       _trap_S_StartSound         3002d550 f   cg_syscalls.obj
 0001:0002c590       _trap_S_StartLocalSound    3002d590 f   cg_syscalls.obj
 0001:0002c5c0       _trap_S_ClearLoopingSounds 3002d5c0 f   cg_syscalls.obj
 0001:0002c5f0       _trap_S_AddLoopingSound    3002d5f0 f   cg_syscalls.obj
 0001:0002c630       _trap_S_AddRealLoopingSound 3002d630 f   cg_syscalls.obj
 0001:0002c670       _trap_S_StopLoopingSound   3002d670 f   cg_syscalls.obj
 0001:0002c6a0       _trap_S_UpdateEntityPosition 3002d6a0 f   cg_syscalls.obj
 0001:0002c6d0       _trap_S_Respatialize       3002d6d0 f   cg_syscalls.obj
 0001:0002c710       _trap_S_RegisterSound      3002d710 f   cg_syscalls.obj
 0001:0002c740       _trap_S_StartBackgroundTrack 3002d740 f   cg_syscalls.obj
 0001:0002c770       _trap_R_LoadWorldMap       3002d770 f   cg_syscalls.obj
 0001:0002c7a0       _trap_R_RegisterModel      3002d7a0 f   cg_syscalls.obj
 0001:0002c7d0       _trap_R_RegisterSkin       3002d7d0 f   cg_syscalls.obj
 0001:0002c800       _trap_R_RegisterShader     3002d800 f   cg_syscalls.obj
 0001:0002c830       _trap_R_RegisterShaderNoMip 3002d830 f   cg_syscalls.obj
 0001:0002c860       _trap_R_RegisterFont       3002d860 f   cg_syscalls.obj
 0001:0002c890       _trap_R_ClearScene         3002d890 f   cg_syscalls.obj
 0001:0002c8c0       _trap_R_AddRefEntityToScene 3002d8c0 f   cg_syscalls.obj
 0001:0002c8f0       _trap_R_AddPolyToScene     3002d8f0 f   cg_syscalls.obj
 0001:0002c920       _trap_R_AddPolysToScene    3002d920 f   cg_syscalls.obj
 0001:0002c960       _trap_R_LightForPoint      3002d960 f   cg_syscalls.obj
 0001:0002c9a0       _trap_R_AddLightToScene    3002d9a0 f   cg_syscalls.obj
 0001:0002ca10       _trap_R_AddAdditiveLightToScene 3002da10 f   cg_syscalls.obj
 0001:0002ca80       _trap_R_RenderScene        3002da80 f   cg_syscalls.obj
 0001:0002cab0       _trap_R_SetColor           3002dab0 f   cg_syscalls.obj
 0001:0002cae0       _trap_R_DrawStretchPic     3002dae0 f   cg_syscalls.obj
 0001:0002cb90       _trap_R_ModelBounds        3002db90 f   cg_syscalls.obj
 0001:0002cbc0       _trap_R_LerpTag            3002dbc0 f   cg_syscalls.obj
 0001:0002cc10       _trap_R_RemapShader        3002dc10 f   cg_syscalls.obj
 0001:0002cc40       _trap_GetGlconfig          3002dc40 f   cg_syscalls.obj
 0001:0002cc70       _trap_GetGameState         3002dc70 f   cg_syscalls.obj
 0001:0002cca0       _trap_GetCurrentSnapshotNumber 3002dca0 f   cg_syscalls.obj
 0001:0002ccd0       _trap_GetSnapshot          3002dcd0 f   cg_syscalls.obj
 0001:0002cd00       _trap_GetServerCommand     3002dd00 f   cg_syscalls.obj
 0001:0002cd30       _trap_GetCurrentCmdNumber  3002dd30 f   cg_syscalls.obj
 0001:0002cd60       _trap_GetUserCmd           3002dd60 f   cg_syscalls.obj
 0001:0002cd90       _trap_SetUserCmdValue      3002dd90 f   cg_syscalls.obj
 0001:0002cdd0       _testPrintInt              3002ddd0 f   cg_syscalls.obj
 0001:0002ce00       _testPrintFloat            3002de00 f   cg_syscalls.obj
 0001:0002ce40       _trap_MemoryRemaining      3002de40 f   cg_syscalls.obj
 0001:0002ce70       _trap_Key_IsDown           3002de70 f   cg_syscalls.obj
 0001:0002cea0       _trap_Key_GetCatcher       3002dea0 f   cg_syscalls.obj
 0001:0002ced0       _trap_Key_SetCatcher       3002ded0 f   cg_syscalls.obj
 0001:0002cf00       _trap_Key_GetKey           3002df00 f   cg_syscalls.obj
 0001:0002cf30       _trap_PC_AddGlobalDefine   3002df30 f   cg_syscalls.obj
 0001:0002cf60       _trap_PC_LoadSource        3002df60 f   cg_syscalls.obj
 0001:0002cf90       _trap_PC_FreeSource        3002df90 f   cg_syscalls.obj
 0001:0002cfc0       _trap_PC_ReadToken         3002dfc0 f   cg_syscalls.obj
 0001:0002cff0       _trap_PC_SourceFileAndLine 3002dff0 f   cg_syscalls.obj
 0001:0002d020       _trap_S_StopBackgroundTrack 3002e020 f   cg_syscalls.obj
 0001:0002d050       _trap_RealTime             3002e050 f   cg_syscalls.obj
 0001:0002d080       _trap_SnapVector           3002e080 f   cg_syscalls.obj
 0001:0002d0b0       _trap_CIN_PlayCinematic    3002e0b0 f   cg_syscalls.obj
 0001:0002d0f0       _trap_CIN_StopCinematic    3002e0f0 f   cg_syscalls.obj
 0001:0002d120       _trap_CIN_RunCinematic     3002e120 f   cg_syscalls.obj
 0001:0002d150       _trap_CIN_DrawCinematic    3002e150 f   cg_syscalls.obj
 0001:0002d180       _trap_CIN_SetExtents       3002e180 f   cg_syscalls.obj
 0001:0002d1c0       _trap_GetEntityToken       3002e1c0 f   cg_syscalls.obj
 0001:0002d1f0       _trap_R_inPVS              3002e1f0 f   cg_syscalls.obj
 0001:0002d220       _CG_TestModel_f            3002e220 f   cg_view.obj
 0001:0002d3a0       _CG_TestGun_f              3002e3a0 f   cg_view.obj
 0001:0002d3e0       _CG_TestModelNextFrame_f   3002e3e0 f   cg_view.obj
 0001:0002d420       _CG_TestModelPrevFrame_f   3002e420 f   cg_view.obj
 0001:0002d480       _CG_TestModelNextSkin_f    3002e480 f   cg_view.obj
 0001:0002d4c0       _CG_TestModelPrevSkin_f    3002e4c0 f   cg_view.obj
 0001:0002d520       _CG_ZoomDown_f             3002e520 f   cg_view.obj
 0001:0002d560       _CG_ZoomUp_f               3002e560 f   cg_view.obj
 0001:0002d5a0       _CG_AddBufferedSound       3002e5a0 f   cg_view.obj
 0001:0002d610       _CG_DrawActiveFrame        3002e610 f   cg_view.obj
 0001:0002ef30       _CG_RailTrail              3002ff30 f   cg_weapons.obj
 0001:0002f840       _CG_GrappleTrail           30030840 f   cg_weapons.obj
 0001:0002fad0       _CG_RegisterWeapon         30030ad0 f   cg_weapons.obj
 0001:000315d0       _CG_RegisterItemVisuals    300325d0 f   cg_weapons.obj
 0001:00031720       _CG_AddPlayerWeapon        30032720 f   cg_weapons.obj
 0001:00032640       _CG_AddViewWeapon          30033640 f   cg_weapons.obj
 0001:00032d30       _CG_DrawWeaponSelect       30033d30 f   cg_weapons.obj
 0001:00032ff0       _CG_NextWeapon_f           30033ff0 f   cg_weapons.obj
 0001:00033130       _CG_PrevWeapon_f           30034130 f   cg_weapons.obj
 0001:00033210       _CG_Weapon_f               30034210 f   cg_weapons.obj
 0001:000332c0       _CG_OutOfAmmoChange        300342c0 f   cg_weapons.obj
 0001:00033330       _CG_FireWeapon             30034330 f   cg_weapons.obj
 0001:000334c0       _CG_MissileHitWall         300344c0 f   cg_weapons.obj
 0001:00033ab0       _CG_MissileHitPlayer       30034ab0 f   cg_weapons.obj
 0001:00033b10       _CG_ShotgunFire            30034b10 f   cg_weapons.obj
 0001:00034090       _CG_Tracer                 30035090 f   cg_weapons.obj
 0001:00034550       _CG_Bullet                 30035550 f   cg_weapons.obj
 0001:00034940       _Q_rand                    30035940 f   q_math.obj
 0001:00034980       _Q_random                  30035980 f   q_math.obj
 0001:000349c0       _Q_crandom                 300359c0 f   q_math.obj
 0001:000349f0       _ClampChar                 300359f0 f   q_math.obj
 0001:00034a20       _ClampShort                30035a20 f   q_math.obj
 0001:00034a60       _DirToByte                 30035a60 f   q_math.obj
 0001:00034b30       _ByteToDir                 30035b30 f   q_math.obj
 0001:00034bd0       _ColorBytes3               30035bd0 f   q_math.obj
 0001:00034c30       _ColorBytes4               30035c30 f   q_math.obj
 0001:00034ca0       _NormalizeColor            30035ca0 f   q_math.obj
 0001:00034d70       _PlaneFromPoints           30035d70 f   q_math.obj
 0001:00034f00       _RotatePointAroundVector   30035f00 f   q_math.obj
 0001:000351b0       _RotateAroundDirection     300361b0 f   q_math.obj
 0001:00035260       _vectoangles               30036260 f   q_math.obj
 0001:00035430       _AnglesToAxis              30036430 f   q_math.obj
 0001:000354a0       _AxisClear                 300364a0 f   q_math.obj
 0001:00035530       _AxisCopy                  30036530 f   q_math.obj
 0001:000355d0       _ProjectPointOnPlane       300365d0 f   q_math.obj
 0001:00035710       _MakeNormalVectors         30036710 f   q_math.obj
 0001:00035800       _VectorRotate              30036800 f   q_math.obj
 0001:000358c0       _Q_rsqrt                   300368c0 f   q_math.obj
 0001:00035930       _Q_fabs                    30036930 f   q_math.obj
 0001:00035960       _LerpAngle                 30036960 f   q_math.obj
 0001:000359e0       _AngleSubtract             300369e0 f   q_math.obj
 0001:00035a50       _AnglesSubtract            30036a50 f   q_math.obj
 0001:00035ad0       _AngleMod                  30036ad0 f   q_math.obj
 0001:00035b10       _AngleNormalize360         30036b10 f   q_math.obj
 0001:00035b50       _AngleNormalize180         30036b50 f   q_math.obj
 0001:00035ba0       _AngleDelta                30036ba0 f   q_math.obj
 0001:00035bd0       _SetPlaneSignbits          30036bd0 f   q_math.obj
 0001:00035c50       _BoxOnPlaneSide            30036c50 f   q_math.obj
 0001:00035f20       _RadiusFromBounds          30036f20 f   q_math.obj
 0001:00036040       _ClearBounds               30037040 f   q_math.obj
 0001:000360a0       _AddPointToBounds          300370a0 f   q_math.obj
 0001:000361a0       _VectorNormalize           300371a0 f   q_math.obj
 0001:00036260       _VectorNormalize2          30037260 f   q_math.obj
 0001:00036340       __VectorMA                 30037340 f   q_math.obj
 0001:000363a0       __DotProduct               300373a0 f   q_math.obj
 0001:000363f0       __VectorSubtract           300373f0 f   q_math.obj
 0001:00036450       __VectorAdd                30037450 f   q_math.obj
 0001:000364b0       __VectorCopy               300374b0 f   q_math.obj
 0001:000364f0       __VectorScale              300374f0 f   q_math.obj
 0001:00036540       _Vector4Scale              30037540 f   q_math.obj
 0001:000365a0       _Q_log2                    300375a0 f   q_math.obj
 0001:000365e0       _MatrixMultiply            300375e0 f   q_math.obj
 0001:000367f0       _AngleVectors              300377f0 f   q_math.obj
 0001:00036a50       _PerpendicularVector       30037a50 f   q_math.obj
 0001:00036b40       _Com_Clamp                 30037b40 f   q_shared.obj
 0001:00036b90       _COM_SkipPath              30037b90 f   q_shared.obj
 0001:00036bf0       _COM_StripExtension        30037bf0 f   q_shared.obj
 0001:00036c50       _COM_DefaultExtension      30037c50 f   q_shared.obj
 0001:00036d00       _ShortSwap                 30037d00 f   q_shared.obj
 0001:00036d60       _ShortNoSwap               30037d60 f   q_shared.obj
 0001:00036d80       _LongSwap                  30037d80 f   q_shared.obj
 0001:00036e20       _LongNoSwap                30037e20 f   q_shared.obj
 0001:00036e40       _Long64Swap                30037e40 f   q_shared.obj
 0001:00036ea0       _Long64NoSwap              30037ea0 f   q_shared.obj
 0001:00036ec0       _FloatSwap                 30037ec0 f   q_shared.obj
 0001:00036f00       _FloatNoSwap               30037f00 f   q_shared.obj
 0001:00036f20       _COM_BeginParseSession     30037f20 f   q_shared.obj
 0001:00036f70       _COM_GetCurrentParseLine   30037f70 f   q_shared.obj
 0001:00036f90       _COM_Parse                 30037f90 f   q_shared.obj
 0001:00036fc0       _COM_ParseError            30037fc0 f   q_shared.obj
 0001:00037030       _COM_ParseWarning          30038030 f   q_shared.obj
 0001:000370a0       _COM_Compress              300380a0 f   q_shared.obj
 0001:00037320       _COM_ParseExt              30038320 f   q_shared.obj
 0001:00037650       _COM_MatchToken            30038650 f   q_shared.obj
 0001:000376b0       _SkipBracedSection         300386b0 f   q_shared.obj
 0001:00037740       _SkipRestOfLine            30038740 f   q_shared.obj
 0001:000377b0       _Parse1DMatrix             300387b0 f   q_shared.obj
 0001:00037840       _Parse2DMatrix             30038840 f   q_shared.obj
 0001:000378d0       _Parse3DMatrix             300388d0 f   q_shared.obj
 0001:00037970       _Q_isprint                 30038970 f   q_shared.obj
 0001:000379a0       _Q_islower                 300389a0 f   q_shared.obj
 0001:000379d0       _Q_isupper                 300389d0 f   q_shared.obj
 0001:00037a00       _Q_isalpha                 30038a00 f   q_shared.obj
 0001:00037a40       _Q_strrchr                 30038a40 f   q_shared.obj
 0001:00037ac0       _Q_strncpyz                30038ac0 f   q_shared.obj
 0001:00037b50       _Q_stricmpn                30038b50 f   q_shared.obj
 0001:00037c60       _Q_strncmp                 30038c60 f   q_shared.obj
 0001:00037cf0       _Q_stricmp                 30038cf0 f   q_shared.obj
 0001:00037d40       _Q_strlwr                  30038d40 f   q_shared.obj
 0001:00037da0       _Q_strupr                  30038da0 f   q_shared.obj
 0001:00037e00       _Q_strcat                  30038e00 f   q_shared.obj
 0001:00037e70       _Q_PrintStrlen             30038e70 f   q_shared.obj
 0001:00037f10       _Q_CleanStr                30038f10 f   q_shared.obj
 0001:00037fd0       _Com_sprintf               30038fd0 f   q_shared.obj
 0001:00038080       _va                        30039080 f   q_shared.obj
 0001:000380f0       _Info_ValueForKey          300390f0 f   q_shared.obj
 0001:000382d0       _Info_NextPair             300392d0 f   q_shared.obj
 0001:000383e0       _Info_RemoveKey            300393e0 f   q_shared.obj
 0001:000385b0       _Info_RemoveKey_Big        300395b0 f   q_shared.obj
 0001:00038780       _Info_Validate             30039780 f   q_shared.obj
 0001:000387e0       _Info_SetValueForKey       300397e0 f   q_shared.obj
 0001:000389c0       _Info_SetValueForKey_Big   300399c0 f   q_shared.obj
 0001:00038b90       _UI_Alloc                  30039b90 f   ui_shared.obj
 0001:00038c30       _UI_InitMemory             30039c30 f   ui_shared.obj
 0001:00038c60       _UI_OutOfMemory            30039c60 f   ui_shared.obj
 0001:00038c80       _String_Alloc              30039c80 f   ui_shared.obj
 0001:00038ec0       _String_Report             30039ec0 f   ui_shared.obj
 0001:00038f90       _String_Init               30039f90 f   ui_shared.obj
 0001:00039050       _PC_SourceWarning          3003a050 f   ui_shared.obj
 0001:000390f0       _PC_SourceError            3003a0f0 f   ui_shared.obj
 0001:00039190       _LerpColor                 3003a190 f   ui_shared.obj
 0001:00039250       _Float_Parse               3003a250 f   ui_shared.obj
 0001:000392b0       _PC_Float_Parse            3003a2b0 f   ui_shared.obj
 0001:000393a0       _Color_Parse               3003a3a0 f   ui_shared.obj
 0001:00039410       _PC_Color_Parse            3003a410 f   ui_shared.obj
 0001:00039480       _Int_Parse                 3003a480 f   ui_shared.obj
 0001:000394e0       _PC_Int_Parse              3003a4e0 f   ui_shared.obj
 0001:000395c0       _Rect_Parse                3003a5c0 f   ui_shared.obj
 0001:00039650       _PC_Rect_Parse             3003a650 f   ui_shared.obj
 0001:000396e0       _String_Parse              3003a6e0 f   ui_shared.obj
 0001:00039740       _PC_String_Parse           3003a740 f   ui_shared.obj
 0001:000397a0       _PC_Script_Parse           3003a7a0 f   ui_shared.obj
 0001:00039930       _Init_Display              3003a930 f   ui_shared.obj
 0001:00039950       _GradientBar_Paint         3003a950 f   ui_shared.obj
 0001:000399d0       _Window_Init               3003a9d0 f   ui_shared.obj
 0001:00039a50       _Fade                      3003aa50 f   ui_shared.obj
 0001:00039b50       _Window_Paint              3003ab50 f   ui_shared.obj
 0001:0003a180       _Item_SetScreenCoords      3003b180 f   ui_shared.obj
 0001:0003a230       _Item_UpdatePosition       3003b230 f   ui_shared.obj
 0001:0003a2d0       _Menu_UpdatePosition       3003b2d0 f   ui_shared.obj
 0001:0003a380       _Menu_PostParse            3003b380 f   ui_shared.obj
 0001:0003a3f0       _Menu_ClearFocus           3003b3f0 f   ui_shared.obj
 0001:0003a500       _IsVisible                 3003b500 f   ui_shared.obj
 0001:0003a550       _Rect_ContainsPoint        3003b550 f   ui_shared.obj
 0001:0003a5e0       _Menu_ItemsMatchingGroup   3003b5e0 f   ui_shared.obj
 0001:0003a6a0       _Menu_GetMatchingItemByNumber 3003b6a0 f   ui_shared.obj
 0001:0003a780       _Script_SetColor           3003b780 f   ui_shared.obj
 0001:0003a8c0       _Script_SetAsset           3003b8c0 f   ui_shared.obj
 0001:0003a8f0       _Script_SetBackground      3003b8f0 f   ui_shared.obj
 0001:0003a940       _Menu_FindItemByName       3003b940 f   ui_shared.obj
 0001:0003a9e0       _Script_SetTeamColor       3003b9e0 f   ui_shared.obj
 0001:0003aa50       _Script_SetItemColor       3003ba50 f   ui_shared.obj
 0001:0003ac10       _Menu_ShowItemByName       3003bc10 f   ui_shared.obj
 0001:0003acf0       _Menu_FadeItemByName       3003bcf0 f   ui_shared.obj
 0001:0003adc0       _Menus_FindByName          3003bdc0 f   ui_shared.obj
 0001:0003ae40       _Menus_ShowByName          3003be40 f   ui_shared.obj
 0001:0003ae80       _Menus_OpenByName          3003be80 f   ui_shared.obj
 0001:0003aeb0       _Menus_CloseByName         3003beb0 f   ui_shared.obj
 0001:0003af70       _Menus_CloseAll            3003bf70 f   ui_shared.obj
 0001:0003b000       _Script_Show               3003c000 f   ui_shared.obj
 0001:0003b050       _Script_Hide               3003c050 f   ui_shared.obj
 0001:0003b0a0       _Script_FadeIn             3003c0a0 f   ui_shared.obj
 0001:0003b0f0       _Script_FadeOut            3003c0f0 f   ui_shared.obj
 0001:0003b140       _Script_Open               3003c140 f   ui_shared.obj
 0001:0003b180       _Script_ConditionalOpen    3003c180 f   ui_shared.obj
 0001:0003b230       _Script_Close              3003c230 f   ui_shared.obj
 0001:0003b270       _Menu_TransitionItemByName 3003c270 f   ui_shared.obj
 0001:0003b410       _Script_Transition         3003c410 f   ui_shared.obj
 0001:0003b520       _Menu_OrbitItemByName      3003c520 f   ui_shared.obj
 0001:0003b5f0       _Script_Orbit              3003c5f0 f   ui_shared.obj
 0001:0003b6e0       _Script_SetFocus           3003c6e0 f   ui_shared.obj
 0001:0003b7f0       _Script_SetPlayerModel     3003c7f0 f   ui_shared.obj
 0001:0003b840       _Script_SetPlayerHead      3003c840 f   ui_shared.obj
 0001:0003b890       _Script_SetCvar            3003c890 f   ui_shared.obj
 0001:0003b8f0       _Script_Exec               3003c8f0 f   ui_shared.obj
 0001:0003b950       _Script_Play               3003c950 f   ui_shared.obj
 0001:0003b9b0       _Script_playLooped         3003c9b0 f   ui_shared.obj
 0001:0003ba10       _Item_RunScript            3003ca10 f   ui_shared.obj
 0001:0003bbc0       _Item_EnableShowViaCvar    3003cbc0 f   ui_shared.obj
 0001:0003bdc0       _Item_SetFocus             3003cdc0 f   ui_shared.obj
 0001:0003c090       _Item_ListBox_MaxScroll    3003d090 f   ui_shared.obj
 0001:0003c150       _Item_ListBox_ThumbPosition 3003d150 f   ui_shared.obj
 0001:0003c2a0       _Item_ListBox_ThumbDrawPosition 3003d2a0 f   ui_shared.obj
 0001:0003c480       _Item_Slider_ThumbPosition 3003d480 f   ui_shared.obj
 0001:0003c5a0       _Item_Slider_OverSlider    3003d5a0 f   ui_shared.obj
 0001:0003c620       _Item_ListBox_OverLB       3003d620 f   ui_shared.obj
 0001:0003c980       _Item_ListBox_MouseEnter   3003d980 f   ui_shared.obj
 0001:0003cb80       _Item_MouseEnter           3003db80 f   ui_shared.obj
 0001:0003cd80       _Item_MouseLeave           3003dd80 f   ui_shared.obj
 0001:0003ce10       _Menu_HitTest              3003de10 f   ui_shared.obj
 0001:0003ce90       _Item_SetMouseOver         3003de90 f   ui_shared.obj
 0001:0003cee0       _Item_OwnerDraw_HandleKey  3003dee0 f   ui_shared.obj
 0001:0003cf40       _Item_ListBox_HandleKey    3003df40 f   ui_shared.obj
 0001:0003d920       _Item_YesNo_HandleKey      3003e920 f   ui_shared.obj
 0001:0003da50       _Item_Multi_CountSettings  3003ea50 f   ui_shared.obj
 0001:0003da90       _Item_Multi_FindCvarByValue 3003ea90 f   ui_shared.obj
 0001:0003dc00       _Item_Multi_Setting        3003ec00 f   ui_shared.obj
 0001:0003dd90       _Item_Multi_HandleKey      3003ed90 f   ui_shared.obj
 0001:0003df90       _Item_TextField_HandleKey  3003ef90 f   ui_shared.obj
 0001:0003e760       _Item_StartCapture         3003f760 f   ui_shared.obj
 0001:0003ef30       _Item_StopCapture          3003ff30 f   ui_shared.obj
 0001:0003ef50       _Item_Slider_HandleKey     3003ff50 f   ui_shared.obj
 0001:0003f180       _Item_HandleKey            30040180 f   ui_shared.obj
 0001:0003f360       _Item_Action               30040360 f   ui_shared.obj
 0001:0003f3a0       _Menu_SetPrevCursorItem    300403a0 f   ui_shared.obj
 0001:0003f550       _Menu_SetNextCursorItem    30040550 f   ui_shared.obj
 0001:0003f700       _Menus_Activate            30040700 f   ui_shared.obj
 0001:0003f940       _Display_VisibleMenuCount  30040940 f   ui_shared.obj
 0001:0003f9b0       _Menus_HandleOOBClick      300409b0 f   ui_shared.obj
 0001:0003fb70       _Menu_HandleKey            30040b70 f   ui_shared.obj
 0001:00040330       _ToWindowCoords            30041330 f   ui_shared.obj
 0001:000403a0       _Rect_ToWindowCoords       300413a0 f   ui_shared.obj
 0001:000403d0       _Item_SetTextExtents       300413d0 f   ui_shared.obj
 0001:000406e0       _Item_TextColor            300416e0 f   ui_shared.obj
 0001:000409d0       _Item_Text_AutoWrapped_Paint 300419d0 f   ui_shared.obj
 0001:00040e40       _Item_Text_Wrapped_Paint   30041e40 f   ui_shared.obj
 0001:00041100       _Item_Text_Paint           30042100 f   ui_shared.obj
 0001:00041290       _Item_TextField_Paint      30042290 f   ui_shared.obj
 0001:00041620       _Item_YesNo_Paint          30042620 f   ui_shared.obj
 0001:000418b0       _Item_Multi_Paint          300428b0 f   ui_shared.obj
 0001:00041ac0       _Controls_GetConfig        30042ac0 f   ui_shared.obj
 0001:00041c20       _Controls_SetConfig        30042c20 f   ui_shared.obj
 0001:00041d10       _Controls_SetDefaults      30042d10 f   ui_shared.obj
 0001:00041d90       _BindingIDFromName         30042d90 f   ui_shared.obj
 0001:00041e00       _BindingFromName           30042e00 f   ui_shared.obj
 0001:00041f50       _Item_Slider_Paint         30042f50 f   ui_shared.obj
 0001:000421b0       _Item_Bind_Paint           300431b0 f   ui_shared.obj
 0001:00042490       _Display_KeyBindPending    30043490 f   ui_shared.obj
 0001:000424b0       _Item_Bind_HandleKey       300434b0 f   ui_shared.obj
 0001:000428d0       _AdjustFrom640             300438d0 f   ui_shared.obj
 0001:00042960       _Item_Model_Paint          30043960 f   ui_shared.obj
 0001:00042da0       _Item_Image_Paint          30043da0 f   ui_shared.obj
 0001:00042e30       _Item_ListBox_Paint        30043e30 f   ui_shared.obj
 0001:000438f0       _Item_OwnerDraw_Paint      300448f0 f   ui_shared.obj
 0001:00043ee0       _Item_Paint                30044ee0 f   ui_shared.obj
 0001:000446b0       _Menu_Init                 300456b0 f   ui_shared.obj
 0001:00044750       _Menu_GetFocusedItem       30045750 f   ui_shared.obj
 0001:000447d0       _Menu_GetFocused           300457d0 f   ui_shared.obj
 0001:00044860       _Menu_ScrollFeeder         30045860 f   ui_shared.obj
 0001:00044900       _Menu_SetFeederSelection   30045900 f   ui_shared.obj
 0001:00044a50       _Menus_AnyFullScreenVisible 30045a50 f   ui_shared.obj
 0001:00044ad0       _Menus_ActivateByName      30045ad0 f   ui_shared.obj
 0001:00044be0       _Item_Init                 30045be0 f   ui_shared.obj
 0001:00044c30       _Menu_HandleMouseMove      30045c30 f   ui_shared.obj
 0001:00044f00       _Menu_Paint                30045f00 f   ui_shared.obj
 0001:000450c0       _Item_ValidateTypeData     300460c0 f   ui_shared.obj
 0001:00045260       _KeywordHash_Key           30046260 f   ui_shared.obj
 0001:00045340       _KeywordHash_Add           30046340 f   ui_shared.obj
 0001:00045390       _KeywordHash_Find          30046390 f   ui_shared.obj
 0001:00045410       _ItemParse_name            30046410 f   ui_shared.obj
 0001:00045450       _ItemParse_focusSound      30046450 f   ui_shared.obj
 0001:000454b0       _ItemParse_text            300464b0 f   ui_shared.obj
 0001:000454f0       _ItemParse_group           300464f0 f   ui_shared.obj
 0001:00045530       _ItemParse_asset_model     30046530 f   ui_shared.obj
 0001:000455c0       _ItemParse_asset_shader    300465c0 f   ui_shared.obj
 0001:00045620       _ItemParse_model_origin    30046620 f   ui_shared.obj
 0001:000456c0       _ItemParse_model_fovx      300466c0 f   ui_shared.obj
 0001:00045720       _ItemParse_model_fovy      30046720 f   ui_shared.obj
 0001:00045780       _ItemParse_model_rotation  30046780 f   ui_shared.obj
 0001:000457e0       _ItemParse_model_angle     300467e0 f   ui_shared.obj
 0001:00045840       _ItemParse_rect            30046840 f   ui_shared.obj
 0001:00045880       _ItemParse_style           30046880 f   ui_shared.obj
 0001:000458c0       _ItemParse_decoration      300468c0 f   ui_shared.obj
 0001:000458f0       _ItemParse_notselectable   300468f0 f   ui_shared.obj
 0001:00045950       _ItemParse_wrapped         30046950 f   ui_shared.obj
 0001:00045980       _ItemParse_autowrapped     30046980 f   ui_shared.obj
 0001:000459b0       _ItemParse_horizontalscroll 300469b0 f   ui_shared.obj
 0001:000459e0       _ItemParse_type            300469e0 f   ui_shared.obj
 0001:00045a30       _ItemParse_elementwidth    30046a30 f   ui_shared.obj
 0001:00045a90       _ItemParse_elementheight   30046a90 f   ui_shared.obj
 0001:00045af0       _ItemParse_feeder          30046af0 f   ui_shared.obj
 0001:00045b30       _ItemParse_elementtype     30046b30 f   ui_shared.obj
 0001:00045ba0       _ItemParse_columns         30046ba0 f   ui_shared.obj
 0001:00045cf0       _ItemParse_border          30046cf0 f   ui_shared.obj
 0001:00045d30       _ItemParse_bordersize      30046d30 f   ui_shared.obj
 0001:00045d70       _ItemParse_visible         30046d70 f   ui_shared.obj
 0001:00045dd0       _ItemParse_ownerdraw       30046dd0 f   ui_shared.obj
 0001:00045e20       _ItemParse_align           30046e20 f   ui_shared.obj
 0001:00045e60       _ItemParse_textalign       30046e60 f   ui_shared.obj
 0001:00045ea0       _ItemParse_textalignx      30046ea0 f   ui_shared.obj
 0001:00045ee0       _ItemParse_textaligny      30046ee0 f   ui_shared.obj
 0001:00045f20       _ItemParse_textscale       30046f20 f   ui_shared.obj
 0001:00045f60       _ItemParse_textstyle       30046f60 f   ui_shared.obj
 0001:00045fa0       _ItemParse_backcolor       30046fa0 f   ui_shared.obj
 0001:00046010       _ItemParse_forecolor       30047010 f   ui_shared.obj
 0001:00046090       _ItemParse_bordercolor     30047090 f   ui_shared.obj
 0001:00046100       _ItemParse_outlinecolor    30047100 f   ui_shared.obj
 0001:00046140       _ItemParse_background      30047140 f   ui_shared.obj
 0001:000461a0       _ItemParse_cinematic       300471a0 f   ui_shared.obj
 0001:000461e0       _ItemParse_doubleClick     300471e0 f   ui_shared.obj
 0001:00046260       _ItemParse_onFocus         30047260 f   ui_shared.obj
 0001:000462a0       _ItemParse_leaveFocus      300472a0 f   ui_shared.obj
 0001:000462e0       _ItemParse_mouseEnter      300472e0 f   ui_shared.obj
 0001:00046320       _ItemParse_mouseExit       30047320 f   ui_shared.obj
 0001:00046360       _ItemParse_mouseEnterText  30047360 f   ui_shared.obj
 0001:000463a0       _ItemParse_mouseExitText   300473a0 f   ui_shared.obj
 0001:000463e0       _ItemParse_action          300473e0 f   ui_shared.obj
 0001:00046420       _ItemParse_special         30047420 f   ui_shared.obj
 0001:00046460       _ItemParse_cvarTest        30047460 f   ui_shared.obj
 0001:000464a0       _ItemParse_cvar            300474a0 f   ui_shared.obj
 0001:00046540       _ItemParse_maxChars        30047540 f   ui_shared.obj
 0001:000465c0       _ItemParse_maxPaintChars   300475c0 f   ui_shared.obj
 0001:00046640       _ItemParse_cvarFloat       30047640 f   ui_shared.obj
 0001:00046710       _ItemParse_cvarStrList     30047710 f   ui_shared.obj
 0001:00046930       _ItemParse_cvarFloatList   30047930 f   ui_shared.obj
 0001:00046b20       _ItemParse_addColorRange   30047b20 f   ui_shared.obj
 0001:00046bf0       _ItemParse_ownerdrawFlag   30047bf0 f   ui_shared.obj
 0001:00046c40       _ItemParse_enableCvar      30047c40 f   ui_shared.obj
 0001:00046c90       _ItemParse_disableCvar     30047c90 f   ui_shared.obj
 0001:00046ce0       _ItemParse_showCvar        30047ce0 f   ui_shared.obj
 0001:00046d30       _ItemParse_hideCvar        30047d30 f   ui_shared.obj
 0001:00046d80       _Item_SetupKeywordHash     30047d80 f   ui_shared.obj
 0001:00046e00       _Item_Parse                30047e00 f   ui_shared.obj
 0001:00046f60       _Item_InitControls         30047f60 f   ui_shared.obj
 0001:00046ff0       _MenuParse_font            30047ff0 f   ui_shared.obj
 0001:00047090       _MenuParse_name            30048090 f   ui_shared.obj
 0001:000470f0       _MenuParse_fullscreen      300480f0 f   ui_shared.obj
 0001:00047140       _MenuParse_rect            30048140 f   ui_shared.obj
 0001:00047180       _MenuParse_style           30048180 f   ui_shared.obj
 0001:000471d0       _MenuParse_visible         300481d0 f   ui_shared.obj
 0001:00047230       _MenuParse_onOpen          30048230 f   ui_shared.obj
 0001:00047280       _MenuParse_onClose         30048280 f   ui_shared.obj
 0001:000472d0       _MenuParse_onESC           300482d0 f   ui_shared.obj
 0001:00047320       _MenuParse_border          30048320 f   ui_shared.obj
 0001:00047370       _MenuParse_borderSize      30048370 f   ui_shared.obj
 0001:000473c0       _MenuParse_backcolor       300483c0 f   ui_shared.obj
 0001:00047440       _MenuParse_forecolor       30048440 f   ui_shared.obj
 0001:000474d0       _MenuParse_bordercolor     300484d0 f   ui_shared.obj
 0001:00047550       _MenuParse_focuscolor      30048550 f   ui_shared.obj
 0001:000475d0       _MenuParse_disablecolor    300485d0 f   ui_shared.obj
 0001:00047650       _MenuParse_outlinecolor    30048650 f   ui_shared.obj
 0001:000476a0       _MenuParse_background      300486a0 f   ui_shared.obj
 0001:00047700       _MenuParse_cinematic       30048700 f   ui_shared.obj
 0001:00047750       _MenuParse_ownerdrawFlag   30048750 f   ui_shared.obj
 0001:000477b0       _MenuParse_ownerdraw       300487b0 f   ui_shared.obj
 0001:00047800       _MenuParse_popup           30048800 f   ui_shared.obj
 0001:00047840       _MenuParse_outOfBounds     30048840 f   ui_shared.obj
 0001:00047880       _MenuParse_soundLoop       30048880 f   ui_shared.obj
 0001:000478d0       _MenuParse_fadeClamp       300488d0 f   ui_shared.obj
 0001:00047920       _MenuParse_fadeAmount      30048920 f   ui_shared.obj
 0001:00047970       _MenuParse_fadeCycle       30048970 f   ui_shared.obj
 0001:000479c0       _MenuParse_itemDef         300489c0 f   ui_shared.obj
 0001:00047ae0       _Menu_SetupKeywordHash     30048ae0 f   ui_shared.obj
 0001:00047b60       _Menu_Parse                30048b60 f   ui_shared.obj
 0001:00047cd0       _Menu_New                  30048cd0 f   ui_shared.obj
 0001:00047d50       _Menu_Count                30048d50 f   ui_shared.obj
 0001:00047d70       _Menu_PaintAll             30048d70 f   ui_shared.obj
 0001:00047e70       _Menu_Reset                30048e70 f   ui_shared.obj
 0001:00047e90       _Display_GetContext        30048e90 f   ui_shared.obj
 0001:00047eb0       _Display_CaptureItem       30048eb0 f   ui_shared.obj
 0001:00047f40       _Display_MouseMove         30048f40 f   ui_shared.obj
 0001:00048050       _Display_CursorType        30049050 f   ui_shared.obj
 0001:00048110       _Display_HandleKey         30049110 f   ui_shared.obj
 0001:00048170       _Display_CacheAll          30049170 f   ui_shared.obj
 0001:000484b0       __fpmath                   300494b0 f   LIBCMTD:fpinit.obj
 0001:000484e0       __fpclear                  300494e0 f   LIBCMTD:fpinit.obj
 0001:000484f0       __cfltcvt_init             300494f0 f   LIBCMTD:fpinit.obj
 0001:00048540       ___setfflag                30049540 f   LIBCMTD:fpinit.obj
 0001:00048560       __CIsin                    30049560 f   LIBCMTD:sin.obj
 0001:00048574       _sin                       30049574 f   LIBCMTD:sin.obj
 0001:00048610       __CIcos                    30049610 f   LIBCMTD:cos.obj
 0001:00048624       _cos                       30049624 f   LIBCMTD:cos.obj
 0001:000486c0       _atof                      300496c0 f   LIBCMTD:atof.obj
 0001:00048740       _fabs                      30049740 f   LIBCMTD:fabs.obj
 0001:00048834       __ftol                     30049834 f   LIBCMTD:ftol.obj
 0001:00048860       _memset                    30049860 f   LIBCMTD:memset.obj
 0001:000488c0       _abs                       300498c0 f   LIBCMTD:abs.obj
 0001:000488f0       __CIsqrt                   300498f0 f   LIBCMTD:sqrt.obj
 0001:00048904       _sqrt                      30049904 f   LIBCMTD:sqrt.obj
 0001:000489b0       _atol                      300499b0 f   LIBCMTD:atox.obj
 0001:00048ab0       _atoi                      30049ab0 f   LIBCMTD:atox.obj
 0001:00048ad0       __atoi64                   30049ad0 f   LIBCMTD:atox.obj
 0001:00048c00       _strlen                    30049c00 f   LIBCMTD:strlen.obj
 0001:00048c80       _srand                     30049c80 f   LIBCMTD:rand.obj
 0001:00048c90       _rand                      30049c90 f   LIBCMTD:rand.obj
 0001:00048cd0       _memcpy                    30049cd0 f   LIBCMTD:memcpy.obj
 0001:00049010       _strcpy                    3004a010 f   LIBCMTD:strcat.obj
 0001:00049020       _strcat                    3004a020 f   LIBCMTD:strcat.obj
 0001:00049100       _vsprintf                  3004a100 f   LIBCMTD:vsprintf.obj
 0001:00049200       _strcmp                    3004a200 f   LIBCMTD:strcmp.obj
 0001:00049290       __alloca_probe             3004a290 f   LIBCMTD:chkstk.obj
 0001:00049290       __chkstk                   3004a290 f   LIBCMTD:chkstk.obj
 0001:000492c0       _floor                     3004a2c0 f   LIBCMTD:floor.obj
 0001:00049410       _strchr                    3004a410 f   LIBCMTD:strchr.obj
 0001:00049416       ___from_strstr_to_strchr   3004a416 f   LIBCMTD:strchr.obj
 0001:000494d0       __CIacos                   3004a4d0 f   LIBCMTD:acos.obj
 0001:000494e4       _acos                      3004a4e4 f   LIBCMTD:acos.obj
 0001:000495a0       _strncpy                   3004a5a0 f   LIBCMTD:strncpy.obj
 0001:000496a0       _strstr                    3004a6a0 f   LIBCMTD:strstr.obj
 0001:00049720       _atan2                     3004a720 f   LIBCMTD:87ctriga.obj
 0001:0004972a       __CIatan2                  3004a72a f   LIBCMTD:87ctriga.obj
 0001:00049740       __CItan                    3004a740 f   LIBCMTD:tan.obj
 0001:00049754       _tan                       3004a754 f   LIBCMTD:tan.obj
 0001:00049800       __assert                   3004a800 f   LIBCMTD:assert.obj
 0001:00049b80       __tolower                  3004ab80 f   LIBCMTD:tolower.obj
 0001:00049b90       _tolower                   3004ab90 f   LIBCMTD:tolower.obj
 0001:00049c30       __tolower_lk               3004ac30 f   LIBCMTD:tolower.obj
 0001:00049d60       __toupper                  3004ad60 f   LIBCMTD:toupper.obj
 0001:00049d70       _toupper                   3004ad70 f   LIBCMTD:toupper.obj
 0001:00049e10       __toupper_lk               3004ae10 f   LIBCMTD:toupper.obj
 0001:00049f40       _memmove                   3004af40 f   LIBCMTD:memmove.obj
 0001:0004a280       __CRT_INIT@12              3004b280 f   LIBCMTD:dllcrt0.obj
 0001:0004a3c0       __DllMainCRTStartup@12     3004b3c0 f   LIBCMTD:dllcrt0.obj
 0001:0004a4c0       __amsg_exit                3004b4c0 f   LIBCMTD:dllcrt0.obj
 0001:0004a500       __setdefaultprecision      3004b500 f   LIBCMTD:fp8.obj
 0001:0004a520       __ms_p5_test_fdiv          3004b520 f   LIBCMTD:testfdiv.obj
 0001:0004a580       __ms_p5_mp_test_fdiv       3004b580 f   LIBCMTD:testfdiv.obj
 0001:0004a5d0       __forcdecpt                3004b5d0 f   LIBCMTD:cvt.obj
 0001:0004a680       __cropzeros                3004b680 f   LIBCMTD:cvt.obj
 0001:0004a760       __positive                 3004b760 f   LIBCMTD:cvt.obj
 0001:0004a790       __fassign                  3004b790 f   LIBCMTD:cvt.obj
 0001:0004a7e0       __cftoe                    3004b7e0 f   LIBCMTD:cvt.obj
 0001:0004a9d0       __cftof                    3004b9d0 f   LIBCMTD:cvt.obj
 0001:0004ab80       __cftog                    3004bb80 f   LIBCMTD:cvt.obj
 0001:0004ac70       __cfltcvt                  3004bc70 f   LIBCMTD:cvt.obj
 0001:0004ad00       __trandisp1                3004bd00 f   LIBCMTD:87disp.obj
 0001:0004ad67       __trandisp2                3004bd67 f   LIBCMTD:87disp.obj
 0001:0004adf3       __rttospopde               3004bdf3 f   LIBCMTD:87disp.obj
 0001:0004adf8       __rttospop                 3004bdf8 f   LIBCMTD:87disp.obj
 0001:0004adfa       __rtnospop                 3004bdfa f   LIBCMTD:87disp.obj
 0001:0004adfc       __rttosnpop                3004bdfc f   LIBCMTD:87disp.obj
 0001:0004adfd       __rtnospopde               3004bdfd f   LIBCMTD:87disp.obj
 0001:0004ae04       __rtzeropop                3004be04 f   LIBCMTD:87disp.obj
 0001:0004ae06       __rtzeronpop               3004be06 f   LIBCMTD:87disp.obj
 0001:0004ae0b       __rtonepop                 3004be0b f   LIBCMTD:87disp.obj
 0001:0004ae0d       __rtonenpop                3004be0d f   LIBCMTD:87disp.obj
 0001:0004ae12       __tosnan1                  3004be12 f   LIBCMTD:87disp.obj
 0001:0004ae3d       __nosnan2                  3004be3d f   LIBCMTD:87disp.obj
 0001:0004ae3f       __tosnan2                  3004be3f f   LIBCMTD:87disp.obj
 0001:0004ae67       __nan2                     3004be67 f   LIBCMTD:87disp.obj
 0001:0004aea6       __rtindfpop                3004bea6 f   LIBCMTD:87disp.obj
 0001:0004aea8       __rtindfnpop               3004bea8 f   LIBCMTD:87disp.obj
 0001:0004aeb9       __rttosnpopde              3004beb9 f   LIBCMTD:87disp.obj
 0001:0004aec3       __rtchsifneg               3004bec3 f   LIBCMTD:87disp.obj
 0001:0004aed0       __twoToTOS                 3004bed0 f   LIBCMTD:common.obj
 0001:0004aee5       __load_CW                  3004bee5 f   LIBCMTD:common.obj
 0001:0004aefc       __convertTOStoQNaN         3004befc f   LIBCMTD:common.obj
 0001:0004af15       __fload_withFB             3004bf15 f   LIBCMTD:common.obj
 0001:0004af58       __checkTOS_withFB          3004bf58 f   LIBCMTD:common.obj
 0001:0004af6e       __fast_exit                3004bf6e f   LIBCMTD:common.obj
 0001:0004af7b       __math_exit                3004bf7b f   LIBCMTD:common.obj
 0001:0004afa5       __check_overflow_exit      3004bfa5 f   LIBCMTD:common.obj
 0001:0004afb9       __check_range_exit         3004bfb9 f   LIBCMTD:common.obj
 0001:0004b060       __startTwoArgErrorHandling 3004c060 f   LIBCMTD:genexcep.obj
 0001:0004b077       __startOneArgErrorHandling 3004c077 f   LIBCMTD:genexcep.obj
 0001:0004b0c0       __fltin2                   3004c0c0 f   LIBCMTD:cfin.obj
 0001:0004b180       __isctype                  3004c180 f   LIBCMTD:isctype.obj
 0001:0004b240       __handle_qnan1             3004c240 f   LIBCMTD:fpexcept.obj
 0001:0004b2a0       __handle_qnan2             3004c2a0 f   LIBCMTD:fpexcept.obj
 0001:0004b310       __except1                  3004c310 f   LIBCMTD:fpexcept.obj
 0001:0004b3d0       __except2                  3004c3d0 f   LIBCMTD:fpexcept.obj
 0001:0004b4a0       __raise_exc                3004c4a0 f   LIBCMTD:fpexcept.obj
 0001:0004b970       __handle_exc               3004c970 f   LIBCMTD:fpexcept.obj
 0001:0004bcf0       __umatherr                 3004ccf0 f   LIBCMTD:fpexcept.obj
 0001:0004bd90       __set_errno                3004cd90 f   LIBCMTD:fpexcept.obj
 0001:0004be10       __errcode                  3004ce10 f   LIBCMTD:fpexcept.obj
 0001:0004be90       __set_exp                  3004ce90 f   LIBCMTD:util.obj
 0001:0004bed0       __get_exp                  3004ced0 f   LIBCMTD:util.obj
 0001:0004bf00       __add_exp                  3004cf00 f   LIBCMTD:util.obj
 0001:0004bf40       __set_bexp                 3004cf40 f   LIBCMTD:util.obj
 0001:0004bf80       __sptype                   3004cf80 f   LIBCMTD:util.obj
 0001:0004c000       __decomp                   3004d000 f   LIBCMTD:util.obj
 0001:0004c140       __statfp                   3004d140 f   LIBCMTD:fpctrl.obj
 0001:0004c160       __clrfp                    3004d160 f   LIBCMTD:fpctrl.obj
 0001:0004c180       __ctrlfp                   3004d180 f   LIBCMTD:fpctrl.obj
 0001:0004c1c0       __set_statfp               3004d1c0 f   LIBCMTD:fpctrl.obj
 0001:0004c240       __allmul                   3004d240 f   LIBCMTD:llmul.obj
 0001:0004c280       __mtinit                   3004d280 f   LIBCMTD:tidtable.obj
 0001:0004c310       __mtterm                   3004d310 f   LIBCMTD:tidtable.obj
 0001:0004c340       __initptd                  3004d340 f   LIBCMTD:tidtable.obj
 0001:0004c360       __getptd                   3004d360 f   LIBCMTD:tidtable.obj
 0001:0004c400       __freeptd                  3004d400 f   LIBCMTD:tidtable.obj
 0001:0004c510       ___threadid                3004d510 f   LIBCMTD:tidtable.obj
 0001:0004c520       ___threadhandle            3004d520 f   LIBCMTD:tidtable.obj
 0001:0004c530       __flsbuf                   3004d530 f   LIBCMTD:_flsbuf.obj
 0001:0004c7b0       __output                   3004d7b0 f   LIBCMTD:output.obj
 0001:0004d650       __CrtDbgBreak              3004e650 f   LIBCMTD:dbgrpt.obj
 0001:0004d660       __CrtSetReportMode         3004e660 f   LIBCMTD:dbgrpt.obj
 0001:0004d6c0       __CrtSetReportFile         3004e6c0 f   LIBCMTD:dbgrpt.obj
 0001:0004d740       __CrtSetReportHook         3004e740 f   LIBCMTD:dbgrpt.obj
 0001:0004d760       __CrtDbgReport             3004e760 f   LIBCMTD:dbgrpt.obj
 0001:0004de00       __frnd                     3004ee00 f   LIBCMTD:frnd.obj
 0001:0004de3c       __fFATN2                   3004ee3c f   LIBCMTD:87triga.obj
 0001:0004de8c       __rtpiby2                  3004ee8c f   LIBCMTD:87triga.obj
 0001:0004ded0       __cintrindisp2             3004eed0 f   LIBCMTD:87cdisp.obj
 0001:0004df0e       __cintrindisp1             3004ef0e f   LIBCMTD:87cdisp.obj
 0001:0004df4b       __ctrandisp2               3004ef4b f   LIBCMTD:87cdisp.obj
 0001:0004e0cb       __ctrandisp1               3004f0cb f   LIBCMTD:87cdisp.obj
 0001:0004e0fe       __fload                    3004f0fe f   LIBCMTD:87cdisp.obj
 0001:0004e140       _abort                     3004f140 f   LIBCMTD:abort.obj
 0001:0004e160       __cinit                    3004f160 f   LIBCMTD:crt0dat.obj
 0001:0004e1a0       _exit                      3004f1a0 f   LIBCMTD:crt0dat.obj
 0001:0004e1c0       __exit                     3004f1c0 f   LIBCMTD:crt0dat.obj
 0001:0004e1e0       __cexit                    3004f1e0 f   LIBCMTD:crt0dat.obj
 0001:0004e200       __c_exit                   3004f200 f   LIBCMTD:crt0dat.obj
 0001:0004e310       __lockexit                 3004f310 f   LIBCMTD:crt0dat.obj
 0001:0004e320       __unlockexit               3004f320 f   LIBCMTD:crt0dat.obj
 0001:0004e360       _signal                    3004f360 f   LIBCMTD:winsig.obj
 0001:0004e630       _raise                     3004f630 f   LIBCMTD:winsig.obj
 0001:0004e8d0       ___fpecode                 3004f8d0 f   LIBCMTD:winsig.obj
 0001:0004e8e0       ___pxcptinfoptrs           3004f8e0 f   LIBCMTD:winsig.obj
 0001:0004e8f0       ___crtMessageBoxA          3004f8f0 f   LIBCMTD:crtmbox.obj
 0001:0004e9b0       __itoa                     3004f9b0 f   LIBCMTD:xtoa.obj
 0001:0004ead0       __ltoa                     3004fad0 f   LIBCMTD:xtoa.obj
 0001:0004eb10       __ultoa                    3004fb10 f   LIBCMTD:xtoa.obj
 0001:0004eb30       __i64toa                   3004fb30 f   LIBCMTD:xtoa.obj
 0001:0004ec80       __ui64toa                  3004fc80 f   LIBCMTD:xtoa.obj
 0001:0004eca0       _strncat                   3004fca0 f   LIBCMTD:strncat.obj
 0001:0004edd0       _fflush                    3004fdd0 f   LIBCMTD:fflush.obj
 0001:0004ee20       __fflush_lk                3004fe20 f   LIBCMTD:fflush.obj
 0001:0004ee70       __flush                    3004fe70 f   LIBCMTD:fflush.obj
 0001:0004ef30       __flushall                 3004ff30 f   LIBCMTD:fflush.obj
 0001:0004f080       _fprintf                   30050080 f   LIBCMTD:fprintf.obj
 0001:0004f150       _setvbuf                   30050150 f   LIBCMTD:setvbuf.obj
 0001:0004f2c0       ___initstdio               300502c0 f   LIBCMTD:_file.obj
 0001:0004f3f0       ___endstdio                300503f0 f   LIBCMTD:_file.obj
 0001:0004f410       __lock_file                30050410 f   LIBCMTD:_file.obj
 0001:0004f450       __lock_file2               30050450 f   LIBCMTD:_file.obj
 0001:0004f480       __unlock_file              30050480 f   LIBCMTD:_file.obj
 0001:0004f4c0       __unlock_file2             300504c0 f   LIBCMTD:_file.obj
 0001:0004f4f0       __mtinitlocks              300504f0 f   LIBCMTD:mlock.obj
 0001:0004f530       __mtdeletelocks            30050530 f   LIBCMTD:mlock.obj
 0001:0004f5d0       __lock                     300505d0 f   LIBCMTD:mlock.obj
 0001:0004f670       __unlock                   30050670 f   LIBCMTD:mlock.obj
 0001:0004f690       __lockerr_exit             30050690 f   LIBCMTD:mlock.obj
 0001:0004f6b0       _setlocale                 300506b0 f   LIBCMTD:setlocal.obj
 0001:0004fd40       __expandlocale             30050d40 f   LIBCMTD:setlocal.obj
 0001:0004fed0       ___init_dummy              30050ed0 f   LIBCMTD:setlocal.obj
 0001:0004fee0       __strcats                  30050ee0 f   LIBCMTD:setlocal.obj
 0001:0004ff30       ___lc_strtolc              30050f30 f   LIBCMTD:setlocal.obj
 0001:00050090       ___lc_lctostr              30051090 f   LIBCMTD:setlocal.obj
 0001:00050100       ___crtLCMapStringA         30051100 f   LIBCMTD:a_map.obj
 0001:00050460       __ioinit                   30051460 f   LIBCMTD:ioinit.obj
 0001:00050790       __ioterm                   30051790 f   LIBCMTD:ioinit.obj
 0001:00050830       _malloc                    30051830 f   LIBCMTD:dbgheap.obj
 0001:00050850       __malloc_dbg               30051850 f   LIBCMTD:dbgheap.obj
 0001:00050880       __nh_malloc                30051880 f   LIBCMTD:dbgheap.obj
 0001:000508a0       __nh_malloc_dbg            300518a0 f   LIBCMTD:dbgheap.obj
 0001:00050900       __heap_alloc               30051900 f   LIBCMTD:dbgheap.obj
 0001:00050920       __heap_alloc_dbg           30051920 f   LIBCMTD:dbgheap.obj
 0001:00050c40       _calloc                    30051c40 f   LIBCMTD:dbgheap.obj
 0001:00050c60       __calloc_dbg               30051c60 f   LIBCMTD:dbgheap.obj
 0001:00050cc0       _realloc                   30051cc0 f   LIBCMTD:dbgheap.obj
 0001:00050ce0       __realloc_dbg              30051ce0 f   LIBCMTD:dbgheap.obj
 0001:00051240       __expand                   30052240 f   LIBCMTD:dbgheap.obj
 0001:00051260       __expand_dbg               30052260 f   LIBCMTD:dbgheap.obj
 0001:000512a0       _free                      300522a0 f   LIBCMTD:dbgheap.obj
 0001:000512c0       __free_lk                  300522c0 f   LIBCMTD:dbgheap.obj
 0001:000512e0       __free_dbg                 300522e0 f   LIBCMTD:dbgheap.obj
 0001:00051310       __free_dbg_lk              30052310 f   LIBCMTD:dbgheap.obj
 0001:00051700       __msize                    30052700 f   LIBCMTD:dbgheap.obj
 0001:00051720       __msize_dbg                30052720 f   LIBCMTD:dbgheap.obj
 0001:00051880       __CrtSetBreakAlloc         30052880 f   LIBCMTD:dbgheap.obj
 0001:000518a0       __CrtSetDbgBlockType       300528a0 f   LIBCMTD:dbgheap.obj
 0001:00051940       __CrtSetAllocHook          30052940 f   LIBCMTD:dbgheap.obj
 0001:000519f0       __CrtCheckMemory           300529f0 f   LIBCMTD:dbgheap.obj
 0001:00051d60       __CrtSetDbgFlag            30052d60 f   LIBCMTD:dbgheap.obj
 0001:00051d90       __CrtDoForAllClientObjects 30052d90 f   LIBCMTD:dbgheap.obj
 0001:00051e00       __CrtIsValidPointer        30052e00 f   LIBCMTD:dbgheap.obj
 0001:00051e50       __CrtIsValidHeapPointer    30052e50 f   LIBCMTD:dbgheap.obj
 0001:00051ee0       __CrtIsMemoryBlock         30052ee0 f   LIBCMTD:dbgheap.obj
 0001:00051fd0       __CrtSetDumpClient         30052fd0 f   LIBCMTD:dbgheap.obj
 0001:00051ff0       __CrtMemCheckpoint         30052ff0 f   LIBCMTD:dbgheap.obj
 0001:00052160       __CrtMemDifference         30053160 f   LIBCMTD:dbgheap.obj
 0001:00052290       __CrtMemDumpAllObjectsSince 30053290 f   LIBCMTD:dbgheap.obj
 0001:00052670       __CrtDumpMemoryLeaks       30053670 f   LIBCMTD:dbgheap.obj
 0001:000526f0       __CrtMemDumpStatistics     300536f0 f   LIBCMTD:dbgheap.obj
 0001:000527c0       __setenvp                  300537c0 f   LIBCMTD:stdenvp.obj
 0001:00052910       __setargv                  30053910 f   LIBCMTD:stdargv.obj
 0001:00052e20       ___crtGetEnvironmentStringsA 30053e20 f   LIBCMTD:a_env.obj
 0001:00053040       __heap_init                30054040 f   LIBCMTD:heapinit.obj
 0001:00053090       __heap_term                30054090 f   LIBCMTD:heapinit.obj
 0001:00053130       _DllMain@12                30054130 f   LIBCMTD:dllmain.obj
 0001:00053140       __FF_MSGBANNER             30054140 f   LIBCMTD:crt0msg.obj
 0001:00053190       __NMSG_WRITE               30054190 f   LIBCMTD:crt0msg.obj
 0001:00053350       __GET_RTERRMSG             30054350 f   LIBCMTD:crt0msg.obj
 0001:000533a0       __statusfp                 300543a0 f   LIBCMTD:ieee87.obj
 0001:000533c0       __clearfp                  300543c0 f   LIBCMTD:ieee87.obj
 0001:000533e0       __control87                300543e0 f   LIBCMTD:ieee87.obj
 0001:00053430       __controlfp                30054430 f   LIBCMTD:ieee87.obj
 0001:00053450       __fpreset                  30054450 f   LIBCMTD:ieee87.obj
 0001:00053840       __ZeroTail                 30054840 f   LIBCMTD:intrncvt.obj
 0001:000538d0       __IncMan                   300548d0 f   LIBCMTD:intrncvt.obj
 0001:00053980       __RoundMan                 30054980 f   LIBCMTD:intrncvt.obj
 0001:00053a60       __CopyMan                  30054a60 f   LIBCMTD:intrncvt.obj
 0001:00053ab0       __FillZeroMan              30054ab0 f   LIBCMTD:intrncvt.obj
 0001:00053ae0       __IsZeroMan                30054ae0 f   LIBCMTD:intrncvt.obj
 0001:00053b20       __ShrMan                   30054b20 f   LIBCMTD:intrncvt.obj
 0001:00053c10       __ld12cvt                  30054c10 f   LIBCMTD:intrncvt.obj
 0001:00053e60       __ld12tod                  30054e60 f   LIBCMTD:intrncvt.obj
 0001:00053e80       __ld12tof                  30054e80 f   LIBCMTD:intrncvt.obj
 0001:00053ea0       __ld12told                 30054ea0 f   LIBCMTD:intrncvt.obj
 0001:00053f60       __atodbl                   30054f60 f   LIBCMTD:intrncvt.obj
 0001:00053fa0       __atoldbl                  30054fa0 f   LIBCMTD:intrncvt.obj
 0001:00053fe0       __atoflt                   30054fe0 f   LIBCMTD:intrncvt.obj
 0001:00054020       __fptostr                  30055020 f   LIBCMTD:_fptostr.obj
 0001:00054120       __fltout2                  30055120 f   LIBCMTD:cfout.obj
 0001:000541a0       ___dtold                   300551a0 f   LIBCMTD:cfout.obj
 0001:00054310       __fptrap                   30055310 f   LIBCMTD:crt0fp.obj
 0001:00054320       __87except                 30055320 f   LIBCMTD:87except.obj
 0001:000544a0       ___strgtold12              300554a0 f   LIBCMTD:strgtold.obj
 0001:00054fd0       ___STRINGTOLD              30055fd0 f   LIBCMTD:strgtold.obj
 0001:00055020       ___crtGetStringTypeA       30056020 f   LIBCMTD:a_str.obj
 0001:000551e0       __dosmaperr                300561e0 f   LIBCMTD:dosmap.obj
 0001:00055280       __errno                    30056280 f   LIBCMTD:dosmap.obj
 0001:00055290       ___doserrno                30056290 f   LIBCMTD:dosmap.obj
 0001:000552a0       __matherr                  300562a0 f   LIBCMTD:matherr.obj
 0001:000552b0       __XcptFilter               300562b0 f   LIBCMTD:winxfltr.obj
 0001:000554d0       __lseek                    300564d0 f   LIBCMTD:lseek.obj
 0001:00055560       __lseek_lk                 30056560 f   LIBCMTD:lseek.obj
 0001:00055620       __write                    30056620 f   LIBCMTD:write.obj
 0001:000556b0       __write_lk                 300566b0 f   LIBCMTD:write.obj
 0001:00055930       __getbuf                   30056930 f   LIBCMTD:_getbuf.obj
 0001:00055a00       __isatty                   30056a00 f   LIBCMTD:isatty.obj
 0001:00055a40       _wctomb                    30056a40 f   LIBCMTD:wctomb.obj
 0001:00055ac0       __wctomb_lk                30056ac0 f   LIBCMTD:wctomb.obj
 0001:00055b60       __aulldiv                  30056b60 f   LIBCMTD:ulldiv.obj
 0001:00055bd0       __aullrem                  30056bd0 f   LIBCMTD:ullrem.obj
 0001:00055c50       __snprintf                 30056c50 f   LIBCMTD:snprintf.obj
 0001:00055d50       __vsnprintf                30056d50 f   LIBCMTD:vsnprint.obj
 0001:00055e50       __commit                   30056e50 f   LIBCMTD:commit.obj
 0001:00055f30       __stbuf                    30056f30 f   LIBCMTD:_sftbuf.obj
 0001:00056090       __ftbuf                    30057090 f   LIBCMTD:_sftbuf.obj
 0001:00056130       __freebuf                  30057130 f   LIBCMTD:_freebuf.obj
 0001:000561d0       __fcloseall                300571d0 f   LIBCMTD:closeall.obj
 0001:000562b0       ___init_time               300572b0 f   LIBCMTD:inittime.obj
 0001:00056c30       ___init_numeric            30057c30 f   LIBCMTD:initnum.obj
 0001:00056f60       ___init_monetary           30057f60 f   LIBCMTD:initmon.obj
 0001:000573c0       ___init_ctype              300583c0 f   LIBCMTD:initctyp.obj
 0001:00057760       ___init_collate            30058760 f   LIBCMTD:initcoll.obj
 0001:00057770       _strcspn                   30058770 f   LIBCMTD:strcspn.obj
 0001:000577b0       _strncmp                   300587b0 f   LIBCMTD:strncmp.obj
 0001:000577f0       _strpbrk                   300587f0 f   LIBCMTD:strpbrk.obj
 0001:00057830       ___get_qualified_locale    30058830 f   LIBCMTD:getqloc.obj
 0001:000585c8       __global_unwind2           300595c8 f   LIBCMTD:exsup.obj
 0001:0005860a       __local_unwind2            3005960a f   LIBCMTD:exsup.obj
 0001:00058662       __NLG_Return2              30059662 f   LIBCMTD:exsup.obj
 0001:00058672       __abnormal_termination     30059672 f   LIBCMTD:exsup.obj
 0001:00058695       __NLG_Notify1              30059695 f   LIBCMTD:exsup.obj
 0001:0005869e       __NLG_Notify               3005969e f   LIBCMTD:exsup.obj
 0001:000586b1       __NLG_Dispatch             300596b1 f   LIBCMTD:exsup.obj
 0001:000586c0       __except_handler3          300596c0 f   LIBCMTD:exsup3.obj
 0001:0005877d       __seh_longjmp_unwind@4     3005977d f   LIBCMTD:exsup3.obj
 0001:000587a0       ?_set_new_handler@@YAP6AHI@ZP6AHI@Z@Z 300597a0 f   LIBCMTD:handler.obj
 0001:000587d0       ?_query_new_handler@@YAP6AHI@ZXZ 300597d0 f   LIBCMTD:handler.obj
 0001:000587e0       __callnewh                 300597e0 f   LIBCMTD:handler.obj
 0001:00058810       __malloc_base              30059810 f   LIBCMTD:malloc.obj
 0001:00058830       __nh_malloc_base           30059830 f   LIBCMTD:malloc.obj
 0001:00058890       __heap_alloc_base          30059890 f   LIBCMTD:malloc.obj
 0001:00058900       __CrtDefaultAllocHook      30059900 f   LIBCMTD:dbghook.obj
 0001:00058910       __expand_base              30059910 f   LIBCMTD:expand.obj
 0001:000589c0       __realloc_base             300599c0 f   LIBCMTD:realloc.obj
 0001:00058bb0       __free_base                30059bb0 f   LIBCMTD:free.obj
 0001:00058c20       __heapchk                  30059c20 f   LIBCMTD:heapchk.obj
 0001:00058ca0       __heapset                  30059ca0 f   LIBCMTD:heapchk.obj
 0001:00058cb0       __get_sbh_threshold        30059cb0 f   LIBCMTD:sbheap.obj
 0001:00058cc0       __set_sbh_threshold        30059cc0 f   LIBCMTD:sbheap.obj
 0001:00058ce0       ___sbh_heap_init           30059ce0 f   LIBCMTD:sbheap.obj
 0001:00058d40       ___sbh_find_block          30059d40 f   LIBCMTD:sbheap.obj
 0001:00058da0       ___sbh_verify_block        30059da0 f   LIBCMTD:sbheap.obj
 0001:00058e00       ___sbh_free_block          30059e00 f   LIBCMTD:sbheap.obj
 0001:000593d0       ___sbh_alloc_block         3005a3d0 f   LIBCMTD:sbheap.obj
 0001:00059910       ___sbh_alloc_new_region    3005a910 f   LIBCMTD:sbheap.obj
 0001:00059a20       ___sbh_alloc_new_group     3005aa20 f   LIBCMTD:sbheap.obj
 0001:00059c10       ___sbh_resize_block        3005ac10 f   LIBCMTD:sbheap.obj
 0001:0005a200       ___sbh_heapmin             3005b200 f   LIBCMTD:sbheap.obj
 0001:0005a330       ___sbh_heap_check          3005b330 f   LIBCMTD:sbheap.obj
 0001:0005a950       _sprintf                   3005b950 f   LIBCMTD:sprintf.obj
 0001:0005aa50       __setmbcp                  3005ba50 f   LIBCMTD:mbctype.obj
 0001:0005b210       __getmbcp                  3005c210 f   LIBCMTD:mbctype.obj
 0001:0005b230       ___initmbctable            3005c230 f   LIBCMTD:mbctype.obj
 0001:0005b260       ___addl                    3005c260 f   LIBCMTD:mantold.obj
 0001:0005b2a0       ___add_12                  3005c2a0 f   LIBCMTD:mantold.obj
 0001:0005b350       ___shl_12                  3005c350 f   LIBCMTD:mantold.obj
 0001:0005b3b0       ___shr_12                  3005c3b0 f   LIBCMTD:mantold.obj
 0001:0005b420       ___mtold12                 3005c420 f   LIBCMTD:mantold.obj
 0001:0005b560       _$I10_OUTPUT               3005c560 f   LIBCMTD:x10fout.obj
 0001:0005ba80       ___ld12mul                 3005ca80 f   LIBCMTD:tenpow.obj
 0001:0005bec0       ___multtenpow12            3005cec0 f   LIBCMTD:tenpow.obj
 0001:0005bf90       __alloc_osfhnd             3005cf90 f   LIBCMTD:osfinfo.obj
 0001:0005c180       __set_osfhnd               3005d180 f   LIBCMTD:osfinfo.obj
 0001:0005c240       __free_osfhnd              3005d240 f   LIBCMTD:osfinfo.obj
 0001:0005c320       __get_osfhandle            3005d320 f   LIBCMTD:osfinfo.obj
 0001:0005c390       __open_osfhandle           3005d390 f   LIBCMTD:osfinfo.obj
 0001:0005c4a0       __lock_fhandle             3005d4a0 f   LIBCMTD:osfinfo.obj
 0001:0005c530       __unlock_fhandle           3005d530 f   LIBCMTD:osfinfo.obj
 0001:0005c560       _fclose                    3005d560 f   LIBCMTD:fclose.obj
 0001:0005c5f0       __fclose_lk                3005d5f0 f   LIBCMTD:fclose.obj
 0001:0005c6b0       __Getdays                  3005d6b0 f   LIBCMTD:strftime.obj
 0001:0005c7e0       __Getmonths                3005d7e0 f   LIBCMTD:strftime.obj
 0001:0005c910       __Gettnames                3005d910 f   LIBCMTD:strftime.obj
 0001:0005cc80       _strftime                  3005dc80 f   LIBCMTD:strftime.obj
 0001:0005cca0       __Strftime                 3005dca0 f   LIBCMTD:strftime.obj
 0001:0005db20       ___getlocaleinfo           3005eb20 f   LIBCMTD:inithelp.obj
 0001:0005ddb0       _localeconv                3005edb0 f   LIBCMTD:lconv.obj
 0001:0005ddc0       ___crtGetStringTypeW       3005edc0 f   LIBCMTD:w_str.obj
 0001:0005e030       __strcmpi                  3005f030 f   LIBCMTD:stricmp.obj
 0001:0005e030       __stricmp                  3005f030 f   LIBCMTD:stricmp.obj
 0001:0005e100       __strnicmp                 3005f100 f   LIBCMTD:strnicmp.obj
 0001:0005e210       __close                    3005f210 f   LIBCMTD:close.obj
 0001:0005e290       __close_lk                 3005f290 f   LIBCMTD:close.obj
 0001:0005e340       ___tzset                   3005f340 f   LIBCMTD:tzset.obj
 0001:0005e380       __tzset                    3005f380 f   LIBCMTD:tzset.obj
 0001:0005e750       __isindst                  3005f750 f   LIBCMTD:tzset.obj
 0001:0005ec80       ___crtGetLocaleInfoW       3005fc80 f   LIBCMTD:w_loc.obj
 0001:0005ee20       ___crtGetLocaleInfoA       3005fe20 f   LIBCMTD:a_loc.obj
 0001:0005efd0       _getenv                    3005ffd0 f   LIBCMTD:getenv.obj
 0001:0005f000       __getenv_lk                30060000 f   LIBCMTD:getenv.obj
 0001:0005f0d0       __mbsnbicoll               300600d0 f   LIBCMTD:mbsnbico.obj
 0001:0005f120       ___wtomb_environ           30060120 f   LIBCMTD:wtombenv.obj
 0001:0005f1d0       ___crtCompareStringA       300601d0 f   LIBCMTD:a_cmp.obj
 0001:0005f620       ___crtsetenv               30060620 f   LIBCMTD:setenv.obj
 0001:0005fa70       __mbschr                   30060a70 f   LIBCMTD:mbschr.obj
 0001:0005fb5e       _GetModuleFileNameA@12     30060b5e f   kernel32:KERNEL32.dll
 0001:0005fb64       _InterlockedDecrement@4    30060b64 f   kernel32:KERNEL32.dll
 0001:0005fb6a       _InterlockedIncrement@4    30060b6a f   kernel32:KERNEL32.dll
 0001:0005fb70       _GetCommandLineA@0         30060b70 f   kernel32:KERNEL32.dll
 0001:0005fb76       _GetVersion@0              30060b76 f   kernel32:KERNEL32.dll
 0001:0005fb7c       _GetProcAddress@8          30060b7c f   kernel32:KERNEL32.dll
 0001:0005fb82       _GetModuleHandleA@4        30060b82 f   kernel32:KERNEL32.dll
 0001:0005fb88       _RaiseException@16         30060b88 f   kernel32:KERNEL32.dll
 0001:0005fb8e       _GetCurrentThreadId@0      30060b8e f   kernel32:KERNEL32.dll
 0001:0005fb94       _TlsSetValue@8             30060b94 f   kernel32:KERNEL32.dll
 0001:0005fb9a       _TlsAlloc@0                30060b9a f   kernel32:KERNEL32.dll
 0001:0005fba0       _TlsFree@4                 30060ba0 f   kernel32:KERNEL32.dll
 0001:0005fba6       _SetLastError@4            30060ba6 f   kernel32:KERNEL32.dll
 0001:0005fbac       _TlsGetValue@4             30060bac f   kernel32:KERNEL32.dll
 0001:0005fbb2       _GetLastError@0            30060bb2 f   kernel32:KERNEL32.dll
 0001:0005fbb8       _GetCurrentThread@0        30060bb8 f   kernel32:KERNEL32.dll
 0001:0005fbbe       _DebugBreak@0              30060bbe f   kernel32:KERNEL32.dll
 0001:0005fbc4       _GetStdHandle@4            30060bc4 f   kernel32:KERNEL32.dll
 0001:0005fbca       _WriteFile@20              30060bca f   kernel32:KERNEL32.dll
 0001:0005fbd0       _OutputDebugStringA@4      30060bd0 f   kernel32:KERNEL32.dll
 0001:0005fbd6       _LoadLibraryA@4            30060bd6 f   kernel32:KERNEL32.dll
 0001:0005fbdc       _ExitProcess@4             30060bdc f   kernel32:KERNEL32.dll
 0001:0005fbe2       _TerminateProcess@8        30060be2 f   kernel32:KERNEL32.dll
 0001:0005fbe8       _GetCurrentProcess@0       30060be8 f   kernel32:KERNEL32.dll
 0001:0005fbee       _SetConsoleCtrlHandler@8   30060bee f   kernel32:KERNEL32.dll
 0001:0005fbf4       _EnterCriticalSection@4    30060bf4 f   kernel32:KERNEL32.dll
 0001:0005fbfa       _LeaveCriticalSection@4    30060bfa f   kernel32:KERNEL32.dll
 0001:0005fc00       _InitializeCriticalSection@4 30060c00 f   kernel32:KERNEL32.dll
 0001:0005fc06       _DeleteCriticalSection@4   30060c06 f   kernel32:KERNEL32.dll
 0001:0005fc0c       _FatalAppExitA@8           30060c0c f   kernel32:KERNEL32.dll
 0001:0005fc12       _Sleep@4                   30060c12 f   kernel32:KERNEL32.dll
 0001:0005fc18       _WideCharToMultiByte@32    30060c18 f   kernel32:KERNEL32.dll
 0001:0005fc1e       _MultiByteToWideChar@24    30060c1e f   kernel32:KERNEL32.dll
 0001:0005fc24       _LCMapStringA@24           30060c24 f   kernel32:KERNEL32.dll
 0001:0005fc2a       _LCMapStringW@24           30060c2a f   kernel32:KERNEL32.dll
 0001:0005fc30       _SetHandleCount@4          30060c30 f   kernel32:KERNEL32.dll
 0001:0005fc36       _GetFileType@4             30060c36 f   kernel32:KERNEL32.dll
 0001:0005fc3c       _GetStartupInfoA@4         30060c3c f   kernel32:KERNEL32.dll
 0001:0005fc42       _IsBadWritePtr@8           30060c42 f   kernel32:KERNEL32.dll
 0001:0005fc48       _IsBadReadPtr@8            30060c48 f   kernel32:KERNEL32.dll
 0001:0005fc4e       _HeapValidate@12           30060c4e f   kernel32:KERNEL32.dll
 0001:0005fc54       _FreeEnvironmentStringsA@4 30060c54 f   kernel32:KERNEL32.dll
 0001:0005fc5a       _FreeEnvironmentStringsW@4 30060c5a f   kernel32:KERNEL32.dll
 0001:0005fc60       _GetEnvironmentStrings@0   30060c60 f   kernel32:KERNEL32.dll
 0001:0005fc66       _GetEnvironmentStringsW@0  30060c66 f   kernel32:KERNEL32.dll
 0001:0005fc6c       _HeapDestroy@4             30060c6c f   kernel32:KERNEL32.dll
 0001:0005fc72       _HeapCreate@12             30060c72 f   kernel32:KERNEL32.dll
 0001:0005fc78       _HeapFree@12               30060c78 f   kernel32:KERNEL32.dll
 0001:0005fc7e       _VirtualFree@12            30060c7e f   kernel32:KERNEL32.dll
 0001:0005fc84       _GetStringTypeA@20         30060c84 f   kernel32:KERNEL32.dll
 0001:0005fc8a       _GetStringTypeW@16         30060c8a f   kernel32:KERNEL32.dll
 0001:0005fc90       _UnhandledExceptionFilter@4 30060c90 f   kernel32:KERNEL32.dll
 0001:0005fc96       _SetFilePointer@16         30060c96 f   kernel32:KERNEL32.dll
 0001:0005fc9c       _FlushFileBuffers@4        30060c9c f   kernel32:KERNEL32.dll
 0001:0005fca2       _GetCPInfo@8               30060ca2 f   kernel32:KERNEL32.dll
 0001:0005fca8       _IsValidLocale@8           30060ca8 f   kernel32:KERNEL32.dll
 0001:0005fcae       _IsValidCodePage@4         30060cae f   kernel32:KERNEL32.dll
 0001:0005fcb4       _GetLocaleInfoA@16         30060cb4 f   kernel32:KERNEL32.dll
 0001:0005fcba       _EnumSystemLocalesA@8      30060cba f   kernel32:KERNEL32.dll
 0001:0005fcc0       _GetUserDefaultLCID@0      30060cc0 f   kernel32:KERNEL32.dll
 0001:0005fcc6       _GetVersionExA@4           30060cc6 f   kernel32:KERNEL32.dll
 0001:0005fccc       _RtlUnwind@16              30060ccc f   kernel32:KERNEL32.dll
 0001:0005fcd2       _HeapAlloc@12              30060cd2 f   kernel32:KERNEL32.dll
 0001:0005fcd8       _HeapReAlloc@16            30060cd8 f   kernel32:KERNEL32.dll
 0001:0005fcde       _VirtualAlloc@16           30060cde f   kernel32:KERNEL32.dll
 0001:0005fce4       _GetACP@0                  30060ce4 f   kernel32:KERNEL32.dll
 0001:0005fcea       _GetOEMCP@0                30060cea f   kernel32:KERNEL32.dll
 0001:0005fcf0       _SetStdHandle@8            30060cf0 f   kernel32:KERNEL32.dll
 0001:0005fcf6       _CloseHandle@4             30060cf6 f   kernel32:KERNEL32.dll
 0001:0005fcfc       _GetTimeZoneInformation@4  30060cfc f   kernel32:KERNEL32.dll
 0001:0005fd02       _GetLocaleInfoW@16         30060d02 f   kernel32:KERNEL32.dll
 0001:0005fd08       _CompareStringA@24         30060d08 f   kernel32:KERNEL32.dll
 0001:0005fd0e       _CompareStringW@24         30060d0e f   kernel32:KERNEL32.dll
 0001:0005fd14       _SetEnvironmentVariableA@8 30060d14 f   kernel32:KERNEL32.dll
 0001:00066980       __enc$textbss$begin        30067980     <linker-defined>
 0001:00095c80       __enc$textbss$end          30096c80     <linker-defined>
 0002:0000001c       ??_C@_08DFDJ@EV_TAUNT?$AA@ 3009701c     bg_misc.obj
 0002:00000028       ??_C@_0BE@BDJC@EV_STOPLOOPINGSOUND?$AA@ 30097028     bg_misc.obj
 0002:00000040       ??_C@_0O@BDBB@EV_DEBUG_LINE?$AA@ 30097040     bg_misc.obj
 0002:00000050       ??_C@_0BB@MBOB@EV_LIGHTNINGBOLT?$AA@ 30097050     bg_misc.obj
 0002:00000064       ??_C@_09JFKJ@EV_JUICED?$AA@ 30097064     bg_misc.obj
 0002:00000070       ??_C@_0BA@GDOI@EV_INVUL_IMPACT?$AA@ 30097070     bg_misc.obj
 0002:00000084       ??_C@_0BC@POAK@EV_OBELISKEXPLODE?$AA@ 30097084     bg_misc.obj
 0002:0000009c       ??_C@_0M@KIDO@EV_KAMIKAZE?$AA@ 3009709c     bg_misc.obj
 0002:000000ac       ??_C@_0BK@KGMO@EV_PROXIMITY_MINE_TRIGGER?$AA@ 300970ac     bg_misc.obj
 0002:000000cc       ??_C@_0BI@LIAD@EV_PROXIMITY_MINE_STICK?$AA@ 300970cc     bg_misc.obj
 0002:000000e8       ??_C@_0N@CDHP@EV_SCOREPLUM?$AA@ 300970e8     bg_misc.obj
 0002:000000f8       ??_C@_0O@CIDG@EV_GIB_PLAYER?$AA@ 300970f8     bg_misc.obj
 0002:00000108       ??_C@_0BB@LKNF@EV_POWERUP_REGEN?$AA@ 30097108     bg_misc.obj
 0002:0000011c       ??_C@_0BG@KJJ@EV_POWERUP_BATTLESUIT?$AA@ 3009711c     bg_misc.obj
 0002:00000138       ??_C@_0BA@EMDG@EV_POWERUP_QUAD?$AA@ 30097138     bg_misc.obj
 0002:0000014c       ??_C@_0M@MMOI@EV_OBITUARY?$AA@ 3009714c     bg_misc.obj
 0002:0000015c       ??_C@_09EH@EV_DEATH3?$AA@  3009715c     bg_misc.obj
 0002:00000168       ??_C@_09KKNA@EV_DEATH2?$AA@ 30097168     bg_misc.obj
 0002:00000174       ??_C@_09FFGJ@EV_DEATH1?$AA@ 30097174     bg_misc.obj
 0002:00000180       ??_C@_07MFPI@EV_PAIN?$AA@  30097180     bg_misc.obj
 0002:0000018c       ??_C@_09PBG@EV_BULLET?$AA@ 3009718c     bg_misc.obj
 0002:00000198       ??_C@_0L@PELA@EV_SHOTGUN?$AA@ 30097198     bg_misc.obj
 0002:000001a8       ??_C@_0N@FBDJ@EV_RAILTRAIL?$AA@ 300971a8     bg_misc.obj
 0002:000001b8       ??_C@_0BG@KLM@EV_MISSILE_MISS_METAL?$AA@ 300971b8     bg_misc.obj
 0002:000001d4       ??_C@_0BA@FHCK@EV_MISSILE_MISS?$AA@ 300971d4     bg_misc.obj
 0002:000001e8       ??_C@_0P@GMEB@EV_MISSILE_HIT?$AA@ 300971e8     bg_misc.obj
 0002:000001fc       ??_C@_0BD@FCGB@EV_BULLET_HIT_WALL?$AA@ 300971fc     bg_misc.obj
 0002:00000214       ??_C@_0BE@OJNL@EV_BULLET_HIT_FLESH?$AA@ 30097214     bg_misc.obj
 0002:0000022c       ??_C@_0BF@GBCB@EV_GLOBAL_TEAM_SOUND?$AA@ 3009722c     bg_misc.obj
 0002:00000248       ??_C@_0BA@DICP@EV_GLOBAL_SOUND?$AA@ 30097248     bg_misc.obj
 0002:0000025c       ??_C@_0BB@PHBP@EV_GENERAL_SOUND?$AA@ 3009725c     bg_misc.obj
 0002:00000270       ??_C@_0BC@MNAB@EV_GRENADE_BOUNCE?$AA@ 30097270     bg_misc.obj
 0002:00000288       ??_C@_0BH@CBAJ@EV_PLAYER_TELEPORT_OUT?$AA@ 30097288     bg_misc.obj
 0002:000002a4       ??_C@_0BG@JACO@EV_PLAYER_TELEPORT_IN?$AA@ 300972a4     bg_misc.obj
 0002:000002c0       ??_C@_0M@FEGJ@EV_ITEM_POP?$AA@ 300972c0     bg_misc.obj
 0002:000002d0       ??_C@_0BA@KOE@EV_ITEM_RESPAWN?$AA@ 300972d0     bg_misc.obj
 0002:000002e4       ??_C@_0O@PBJJ@EV_USE_ITEM15?$AA@ 300972e4     bg_misc.obj
 0002:000002f4       ??_C@_0O@FLAO@EV_USE_ITEM14?$AA@ 300972f4     bg_misc.obj
 0002:00000304       ??_C@_0O@OOL@EV_USE_ITEM13?$AA@ 30097304     bg_misc.obj
 0002:00000314       ??_C@_0O@KEHM@EV_USE_ITEM12?$AA@ 30097314     bg_misc.obj
 0002:00000324       ??_C@_0O@FLMF@EV_USE_ITEM11?$AA@ 30097324     bg_misc.obj
 0002:00000334       ??_C@_0O@PBFC@EV_USE_ITEM10?$AA@ 30097334     bg_misc.obj
 0002:00000344       ??_C@_0N@JGCE@EV_USE_ITEM9?$AA@ 30097344     bg_misc.obj
 0002:00000354       ??_C@_0N@DMLD@EV_USE_ITEM8?$AA@ 30097354     bg_misc.obj
 0002:00000364       ??_C@_0N@DNOO@EV_USE_ITEM7?$AA@ 30097364     bg_misc.obj
 0002:00000374       ??_C@_0N@JHHJ@EV_USE_ITEM6?$AA@ 30097374     bg_misc.obj
 0002:00000384       ??_C@_0N@GIMA@EV_USE_ITEM5?$AA@ 30097384     bg_misc.obj
 0002:00000394       ??_C@_0N@MCFH@EV_USE_ITEM4?$AA@ 30097394     bg_misc.obj
 0002:000003a4       ??_C@_0N@JHLC@EV_USE_ITEM3?$AA@ 300973a4     bg_misc.obj
 0002:000003b4       ??_C@_0N@DNCF@EV_USE_ITEM2?$AA@ 300973b4     bg_misc.obj
 0002:000003c4       ??_C@_0N@MCJM@EV_USE_ITEM1?$AA@ 300973c4     bg_misc.obj
 0002:000003d4       ??_C@_0N@GIAL@EV_USE_ITEM0?$AA@ 300973d4     bg_misc.obj
 0002:000003e4       ??_C@_0P@HOLG@EV_FIRE_WEAPON?$AA@ 300973e4     bg_misc.obj
 0002:000003f8       ??_C@_0BB@OKAK@EV_CHANGE_WEAPON?$AA@ 300973f8     bg_misc.obj
 0002:0000040c       ??_C@_09MIBL@EV_NOAMMO?$AA@ 3009740c     bg_misc.obj
 0002:00000418       ??_C@_0BG@LBJI@EV_GLOBAL_ITEM_PICKUP?$AA@ 30097418     bg_misc.obj
 0002:00000434       ??_C@_0P@DDBJ@EV_ITEM_PICKUP?$AA@ 30097434     bg_misc.obj
 0002:00000448       ??_C@_0P@HGEE@EV_WATER_CLEAR?$AA@ 30097448     bg_misc.obj
 0002:0000045c       ??_C@_0P@PGNG@EV_WATER_UNDER?$AA@ 3009745c     bg_misc.obj
 0002:00000470       ??_C@_0P@KHGF@EV_WATER_LEAVE?$AA@ 30097470     bg_misc.obj
 0002:00000484       ??_C@_0P@NPME@EV_WATER_TOUCH?$AA@ 30097484     bg_misc.obj
 0002:00000498       ??_C@_07MBMN@EV_JUMP?$AA@  30097498     bg_misc.obj
 0002:000004a4       ??_C@_0M@ONMG@EV_JUMP_PAD?$AA@ 300974a4     bg_misc.obj
 0002:000004b4       ??_C@_0M@FCFB@EV_FALL_FAR?$AA@ 300974b4     bg_misc.obj
 0002:000004c4       ??_C@_0P@DAAM@EV_FALL_MEDIUM?$AA@ 300974c4     bg_misc.obj
 0002:000004d8       ??_C@_0O@MOHH@EV_FALL_SHORT?$AA@ 300974d8     bg_misc.obj
 0002:000004e8       ??_C@_0L@BPHB@EV_STEP_16?$AA@ 300974e8     bg_misc.obj
 0002:000004f8       ??_C@_0L@LFCN@EV_STEP_12?$AA@ 300974f8     bg_misc.obj
 0002:00000508       ??_C@_09GNLK@EV_STEP_8?$AA@ 30097508     bg_misc.obj
 0002:00000514       ??_C@_09JDFO@EV_STEP_4?$AA@ 30097514     bg_misc.obj
 0002:00000520       ??_C@_07JIKK@EV_SWIM?$AA@  30097520     bg_misc.obj
 0002:0000052c       ??_C@_0M@FIHK@EV_FOOTWADE?$AA@ 3009752c     bg_misc.obj
 0002:0000053c       ??_C@_0O@KHFI@EV_FOOTSPLASH?$AA@ 3009753c     bg_misc.obj
 0002:0000054c       ??_C@_0BC@OEIA@EV_FOOTSTEP_METAL?$AA@ 3009754c     bg_misc.obj
 0002:00000564       ??_C@_0M@EJAF@EV_FOOTSTEP?$AA@ 30097564     bg_misc.obj
 0002:00000574       ??_C@_07NDDD@EV_NONE?$AA@  30097574     bg_misc.obj
 0002:00000580       ??_C@_09DHIB@Blue?5Flag?$AA@ 30097580     bg_misc.obj
 0002:0000058c       ??_C@_0BB@NLLL@icons?1iconf_blu1?$AA@ 3009758c     bg_misc.obj
 0002:000005a0       ??_C@_0BI@ILPD@models?1flags?1b_flag?4md3?$AA@ 300975a0     bg_misc.obj
 0002:000005bc       ??_C@_0BC@GPLF@team_CTF_blueflag?$AA@ 300975bc     bg_misc.obj
 0002:000005d4       ??_C@_08CLEI@Red?5Flag?$AA@ 300975d4     bg_misc.obj
 0002:000005e0       ??_C@_0BB@DADK@icons?1iconf_red1?$AA@ 300975e0     bg_misc.obj
 0002:000005f4       ??_C@_0BI@HHNH@models?1flags?1r_flag?4md3?$AA@ 300975f4     bg_misc.obj
 0002:00000610       ??_C@_0BB@FOCB@team_CTF_redflag?$AA@ 30097610     bg_misc.obj
 0002:00000624       ??_C@_06CPDM@Flight?$AA@   30097624     bg_misc.obj
 0002:0000062c       ??_C@_0N@DFIJ@icons?1flight?$AA@ 3009762c     bg_misc.obj
 0002:0000063c       ??_C@_0CI@PHJ@models?1powerups?1instant?1flight_r@ 3009763c     bg_misc.obj
 0002:0000066c       ??_C@_0CD@MKAO@models?1powerups?1instant?1flight?4m@ 3009766c     bg_misc.obj
 0002:00000698       ??_C@_0BH@FEAN@sound?1items?1flight?4wav?$AA@ 30097698     bg_misc.obj
 0002:000006b4       ??_C@_0M@NKLB@item_flight?$AA@ 300976b4     bg_misc.obj
 0002:000006c4       ??_C@_0BG@JFPE@sound?1items?1regen?4wav?$AA@ 300976c4     bg_misc.obj
 0002:000006e0       ??_C@_0N@KKJF@Regeneration?$AA@ 300976e0     bg_misc.obj
 0002:000006f0       ??_C@_0M@KGFF@icons?1regen?$AA@ 300976f0     bg_misc.obj
 0002:00000700       ??_C@_0CH@LMHA@models?1powerups?1instant?1regen_ri@ 30097700     bg_misc.obj
 0002:00000730       ??_C@_0CC@JDKK@models?1powerups?1instant?1regen?4md@ 30097730     bg_misc.obj
 0002:00000758       ??_C@_0BN@ELHM@sound?1items?1regeneration?4wav?$AA@ 30097758     bg_misc.obj
 0002:0000077c       ??_C@_0L@JOKD@item_regen?$AA@ 3009777c     bg_misc.obj
 0002:0000078c       ??_C@_0N@PHMD@Invisibility?$AA@ 3009778c     bg_misc.obj
 0002:0000079c       ??_C@_0M@GBKC@icons?1invis?$AA@ 3009779c     bg_misc.obj
 0002:000007ac       ??_C@_0CH@FMDJ@models?1powerups?1instant?1invis_ri@ 300977ac     bg_misc.obj
 0002:000007dc       ??_C@_0CC@GFDH@models?1powerups?1instant?1invis?4md@ 300977dc     bg_misc.obj
 0002:00000804       ??_C@_0BN@JBDA@sound?1items?1invisibility?4wav?$AA@ 30097804     bg_misc.obj
 0002:00000828       ??_C@_0L@FJFE@item_invis?$AA@ 30097828     bg_misc.obj
 0002:00000838       ??_C@_05PDDA@Speed?$AA@    30097838     bg_misc.obj
 0002:00000840       ??_C@_0M@MOBK@icons?1haste?$AA@ 30097840     bg_misc.obj
 0002:00000850       ??_C@_0CH@HLNN@models?1powerups?1instant?1haste_ri@ 30097850     bg_misc.obj
 0002:00000880       ??_C@_0CC@HMKI@models?1powerups?1instant?1haste?4md@ 30097880     bg_misc.obj
 0002:000008a8       ??_C@_0BG@HKPG@sound?1items?1haste?4wav?$AA@ 300978a8     bg_misc.obj
 0002:000008c4       ??_C@_0L@PGOM@item_haste?$AA@ 300978c4     bg_misc.obj
 0002:000008d4       ??_C@_0DA@KGOL@sound?1items?1airout?4wav?5sound?1ite@ 300978d4     bg_misc.obj
 0002:00000910       ??_C@_0M@LDNA@Battle?5Suit?$AA@ 30097910     bg_misc.obj
 0002:00000920       ??_C@_0BB@LIEJ@icons?1envirosuit?$AA@ 30097920     bg_misc.obj
 0002:00000934       ??_C@_0CI@BLEN@models?1powerups?1instant?1enviro_r@ 30097934     bg_misc.obj
 0002:00000964       ??_C@_0CD@EJAP@models?1powerups?1instant?1enviro?4m@ 30097964     bg_misc.obj
 0002:00000990       ??_C@_0BI@LHNB@sound?1items?1protect?4wav?$AA@ 30097990     bg_misc.obj
 0002:000009ac       ??_C@_0M@CNAP@item_enviro?$AA@ 300979ac     bg_misc.obj
 0002:000009bc       ??_C@_0DA@MMGJ@sound?1items?1damage2?4wav?5sound?1it@ 300979bc     bg_misc.obj
 0002:000009f8       ??_C@_0M@MLLH@Quad?5Damage?$AA@ 300979f8     bg_misc.obj
 0002:00000a08       ??_C@_0L@CMEC@icons?1quad?$AA@ 30097a08     bg_misc.obj
 0002:00000a18       ??_C@_0CG@HCKJ@models?1powerups?1instant?1quad_rin@ 30097a18     bg_misc.obj
 0002:00000a48       ??_C@_0CB@LCDA@models?1powerups?1instant?1quad?4md3@ 30097a48     bg_misc.obj
 0002:00000a70       ??_C@_0BL@FBJD@sound?1items?1quaddamage?4wav?$AA@ 30097a70     bg_misc.obj
 0002:00000a90       ??_C@_09NKAN@item_quad?$AA@ 30097a90     bg_misc.obj
 0002:00000a9c       ??_C@_0BL@LIGH@sound?1items?1use_medkit?4wav?$AA@ 30097a9c     bg_misc.obj
 0002:00000abc       ??_C@_06MJBN@Medkit?$AA@   30097abc     bg_misc.obj
 0002:00000ac4       ??_C@_0N@NDKI@icons?1medkit?$AA@ 30097ac4     bg_misc.obj
 0002:00000ad4       ??_C@_0CL@EEMI@models?1powerups?1holdable?1medkit_@ 30097ad4     bg_misc.obj
 0002:00000b08       ??_C@_0CE@BLCG@models?1powerups?1holdable?1medkit?4@ 30097b08     bg_misc.obj
 0002:00000b34       ??_C@_0BA@HJCK@holdable_medkit?$AA@ 30097b34     bg_misc.obj
 0002:00000b48       ??_C@_0BE@NHOP@Personal?5Teleporter?$AA@ 30097b48     bg_misc.obj
 0002:00000b60       ??_C@_0BB@EOIF@icons?1teleporter?$AA@ 30097b60     bg_misc.obj
 0002:00000b74       ??_C@_0CI@EJIK@models?1powerups?1holdable?1telepor@ 30097b74     bg_misc.obj
 0002:00000ba4       ??_C@_0BJ@PMCF@sound?1items?1holdable?4wav?$AA@ 30097ba4     bg_misc.obj
 0002:00000bc4       ??_C@_0BE@EFDD@holdable_teleporter?$AA@ 30097bc4     bg_misc.obj
 0002:00000bdc       ??_C@_08HHBB@Bfg?5Ammo?$AA@ 30097bdc     bg_misc.obj
 0002:00000be8       ??_C@_0BA@LIKB@icons?1icona_bfg?$AA@ 30097be8     bg_misc.obj
 0002:00000bfc       ??_C@_0BP@KGME@models?1powerups?1ammo?1bfgam?4md3?$AA@ 30097bfc     bg_misc.obj
 0002:00000c24       ??_C@_08BHPM@ammo_bfg?$AA@ 30097c24     bg_misc.obj
 0002:00000c30       ??_C@_05OJGD@Slugs?$AA@    30097c30     bg_misc.obj
 0002:00000c38       ??_C@_0BE@KFKB@icons?1icona_railgun?$AA@ 30097c38     bg_misc.obj
 0002:00000c50       ??_C@_0CD@BHHI@models?1powerups?1ammo?1railgunam?4m@ 30097c50     bg_misc.obj
 0002:00000c7c       ??_C@_0L@PCJD@ammo_slugs?$AA@ 30097c7c     bg_misc.obj
 0002:00000c8c       ??_C@_07ONGL@Rockets?$AA@  30097c8c     bg_misc.obj
 0002:00000c98       ??_C@_0BD@NDBD@icons?1icona_rocket?$AA@ 30097c98     bg_misc.obj
 0002:00000cb0       ??_C@_0CC@JMHP@models?1powerups?1ammo?1rocketam?4md@ 30097cb0     bg_misc.obj
 0002:00000cd8       ??_C@_0N@DEF@ammo_rockets?$AA@ 30097cd8     bg_misc.obj
 0002:00000ce8       ??_C@_09NPLP@Lightning?$AA@ 30097ce8     bg_misc.obj
 0002:00000cf4       ??_C@_0BG@BLCM@icons?1icona_lightning?$AA@ 30097cf4     bg_misc.obj
 0002:00000d10       ??_C@_0CF@DECD@models?1powerups?1ammo?1lightningam@ 30097d10     bg_misc.obj
 0002:00000d3c       ??_C@_0P@FNDL@ammo_lightning?$AA@ 30097d3c     bg_misc.obj
 0002:00000d50       ??_C@_05IJJG@Cells?$AA@    30097d50     bg_misc.obj
 0002:00000d58       ??_C@_0BD@PPKI@icons?1icona_plasma?$AA@ 30097d58     bg_misc.obj
 0002:00000d70       ??_C@_0CC@GNJA@models?1powerups?1ammo?1plasmaam?4md@ 30097d70     bg_misc.obj
 0002:00000d98       ??_C@_0L@JCGG@ammo_cells?$AA@ 30097d98     bg_misc.obj
 0002:00000da8       ??_C@_08CFEJ@Grenades?$AA@ 30097da8     bg_misc.obj
 0002:00000db4       ??_C@_0BE@MMLE@icons?1icona_grenade?$AA@ 30097db4     bg_misc.obj
 0002:00000dcc       ??_C@_0CD@NMEK@models?1powerups?1ammo?1grenadeam?4m@ 30097dcc     bg_misc.obj
 0002:00000df8       ??_C@_0O@KBKH@ammo_grenades?$AA@ 30097df8     bg_misc.obj
 0002:00000e08       ??_C@_07EDBM@Bullets?$AA@  30097e08     bg_misc.obj
 0002:00000e14       ??_C@_0BH@DHGM@icons?1icona_machinegun?$AA@ 30097e14     bg_misc.obj
 0002:00000e30       ??_C@_0CG@KHPE@models?1powerups?1ammo?1machineguna@ 30097e30     bg_misc.obj
 0002:00000e60       ??_C@_0N@KNDC@ammo_bullets?$AA@ 30097e60     bg_misc.obj
 0002:00000e70       ??_C@_06OAJC@Shells?$AA@   30097e70     bg_misc.obj
 0002:00000e78       ??_C@_0BE@MPL@icons?1icona_shotgun?$AA@ 30097e78     bg_misc.obj
 0002:00000e90       ??_C@_0CD@LJLN@models?1powerups?1ammo?1shotgunam?4m@ 30097e90     bg_misc.obj
 0002:00000ebc       ??_C@_0BH@EMHN@sound?1misc?1am_pkup?4wav?$AA@ 30097ebc     bg_misc.obj
 0002:00000ed8       ??_C@_0M@MOIJ@ammo_shells?$AA@ 30097ed8     bg_misc.obj
 0002:00000ee8       ??_C@_0P@MANM@Grappling?5Hook?$AA@ 30097ee8     bg_misc.obj
 0002:00000efc       ??_C@_0BE@IDGG@icons?1iconw_grapple?$AA@ 30097efc     bg_misc.obj
 0002:00000f14       ??_C@_0CE@LPMO@models?1weapons2?1grapple?1grapple?4@ 30097f14     bg_misc.obj
 0002:00000f40       ??_C@_0BF@GCPL@weapon_grapplinghook?$AA@ 30097f40     bg_misc.obj
 0002:00000f5c       ??_C@_06KEGK@BFG10K?$AA@   30097f5c     bg_misc.obj
 0002:00000f64       ??_C@_0BA@HKCL@icons?1iconw_bfg?$AA@ 30097f64     bg_misc.obj
 0002:00000f78       ??_C@_0BM@MFN@models?1weapons2?1bfg?1bfg?4md3?$AA@ 30097f78     bg_misc.obj
 0002:00000f9c       ??_C@_0L@NOHL@weapon_bfg?$AA@ 30097f9c     bg_misc.obj
 0002:00000fac       ??_C@_0L@OMHC@Plasma?5Gun?$AA@ 30097fac     bg_misc.obj
 0002:00000fbc       ??_C@_0BD@MNKG@icons?1iconw_plasma?$AA@ 30097fbc     bg_misc.obj
 0002:00000fd4       ??_C@_0CC@DOHF@models?1weapons2?1plasma?1plasma?4md@ 30097fd4     bg_misc.obj
 0002:00000ffc       ??_C@_0BB@IMNM@weapon_plasmagun?$AA@ 30097ffc     bg_misc.obj
 0002:00001010       ??_C@_07MJPA@Railgun?$AA@  30098010     bg_misc.obj
 0002:0000101c       ??_C@_0BE@MJD@icons?1iconw_railgun?$AA@ 3009801c     bg_misc.obj
 0002:00001034       ??_C@_0CE@GDNL@models?1weapons2?1railgun?1railgun?4@ 30098034     bg_misc.obj
 0002:00001060       ??_C@_0P@FOOL@weapon_railgun?$AA@ 30098060     bg_misc.obj
 0002:00001074       ??_C@_0O@JANJ@Lightning?5Gun?$AA@ 30098074     bg_misc.obj
 0002:00001084       ??_C@_0BG@MMPA@icons?1iconw_lightning?$AA@ 30098084     bg_misc.obj
 0002:000010a0       ??_C@_0CI@OODD@models?1weapons2?1lightning?1lightn@ 300980a0     bg_misc.obj
 0002:000010d0       ??_C@_0BB@GAKO@weapon_lightning?$AA@ 300980d0     bg_misc.obj
 0002:000010e4       ??_C@_0BA@JFMN@Rocket?5Launcher?$AA@ 300980e4     bg_misc.obj
 0002:000010f8       ??_C@_0BD@OBBN@icons?1iconw_rocket?$AA@ 300980f8     bg_misc.obj
 0002:00001110       ??_C@_0CE@CDMO@models?1weapons2?1rocketl?1rocketl?4@ 30098110     bg_misc.obj
 0002:0000113c       ??_C@_0BG@EKMA@weapon_rocketlauncher?$AA@ 3009813c     bg_misc.obj
 0002:00001158       ??_C@_0EG@FCJ@sound?1weapons?1grenade?1hgrenb1a?4w@ 30098158     bg_misc.obj
 0002:000011ac       ??_C@_0BB@KEFG@Grenade?5Launcher?$AA@ 300981ac     bg_misc.obj
 0002:000011c0       ??_C@_0BE@GFIG@icons?1iconw_grenade?$AA@ 300981c0     bg_misc.obj
 0002:000011d8       ??_C@_0CG@MONC@models?1weapons2?1grenadel?1grenade@ 300981d8     bg_misc.obj
 0002:00001208       ??_C@_0BH@FDFB@weapon_grenadelauncher?$AA@ 30098208     bg_misc.obj
 0002:00001224       ??_C@_0L@OIKI@Machinegun?$AA@ 30098224     bg_misc.obj
 0002:00001234       ??_C@_0BH@IFLL@icons?1iconw_machinegun?$AA@ 30098234     bg_misc.obj
 0002:00001250       ??_C@_0CK@BP@models?1weapons2?1machinegun?1machi@ 30098250     bg_misc.obj
 0002:00001284       ??_C@_0BC@JMBH@weapon_machinegun?$AA@ 30098284     bg_misc.obj
 0002:0000129c       ??_C@_07GAKK@Shotgun?$AA@  3009829c     bg_misc.obj
 0002:000012a8       ??_C@_0BE@KFMJ@icons?1iconw_shotgun?$AA@ 300982a8     bg_misc.obj
 0002:000012c0       ??_C@_0CE@FIBC@models?1weapons2?1shotgun?1shotgun?4@ 300982c0     bg_misc.obj
 0002:000012ec       ??_C@_0P@PHLB@weapon_shotgun?$AA@ 300982ec     bg_misc.obj
 0002:00001300       ??_C@_08MFME@Gauntlet?$AA@ 30098300     bg_misc.obj
 0002:0000130c       ??_C@_0BF@IKAB@icons?1iconw_gauntlet?$AA@ 3009830c     bg_misc.obj
 0002:00001328       ??_C@_0CG@ENLL@models?1weapons2?1gauntlet?1gauntle@ 30098328     bg_misc.obj
 0002:00001358       ??_C@_0BG@OBIE@sound?1misc?1w_pkup?4wav?$AA@ 30098358     bg_misc.obj
 0002:00001374       ??_C@_0BA@NEFD@weapon_gauntlet?$AA@ 30098374     bg_misc.obj
 0002:00001388       ??_C@_0M@MPBK@Mega?5Health?$AA@ 30098388     bg_misc.obj
 0002:00001398       ??_C@_0BB@FCLL@icons?1iconh_mega?$AA@ 30098398     bg_misc.obj
 0002:000013ac       ??_C@_0CH@HNCC@models?1powerups?1health?1mega_sphe@ 300983ac     bg_misc.obj
 0002:000013dc       ??_C@_0CG@GJOF@models?1powerups?1health?1mega_cros@ 300983dc     bg_misc.obj
 0002:0000140c       ??_C@_0BJ@GHGJ@sound?1items?1m_health?4wav?$AA@ 3009840c     bg_misc.obj
 0002:0000142c       ??_C@_0BB@KJE@item_health_mega?$AA@ 3009842c     bg_misc.obj
 0002:00001440       ??_C@_09DDEP@50?5Health?$AA@ 30098440     bg_misc.obj
 0002:0000144c       ??_C@_0BA@PMIC@icons?1iconh_red?$AA@ 3009844c     bg_misc.obj
 0002:00001460       ??_C@_0CI@LKJF@models?1powerups?1health?1large_sph@ 30098460     bg_misc.obj
 0002:00001490       ??_C@_0CH@NOLN@models?1powerups?1health?1large_cro@ 30098490     bg_misc.obj
 0002:000014c0       ??_C@_0BJ@KID@sound?1items?1l_health?4wav?$AA@ 300984c0     bg_misc.obj
 0002:000014e0       ??_C@_0BC@KFF@item_health_large?$AA@ 300984e0     bg_misc.obj
 0002:000014f8       ??_C@_09BECD@25?5Health?$AA@ 300984f8     bg_misc.obj
 0002:00001504       ??_C@_0BD@IBDP@icons?1iconh_yellow?$AA@ 30098504     bg_misc.obj
 0002:0000151c       ??_C@_0CJ@KCHG@models?1powerups?1health?1medium_sp@ 3009851c     bg_misc.obj
 0002:00001550       ??_C@_0CI@DNPD@models?1powerups?1health?1medium_cr@ 30098550     bg_misc.obj
 0002:00001580       ??_C@_0BJ@NBFG@sound?1items?1n_health?4wav?$AA@ 30098580     bg_misc.obj
 0002:000015a0       ??_C@_0M@DFKC@item_health?$AA@ 300985a0     bg_misc.obj
 0002:000015b0       ??_C@_08PNDE@5?5Health?$AA@ 300985b0     bg_misc.obj
 0002:000015bc       ??_C@_0BC@CNMA@icons?1iconh_green?$AA@ 300985bc     bg_misc.obj
 0002:000015d4       ??_C@_0CI@MNOG@models?1powerups?1health?1small_sph@ 300985d4     bg_misc.obj
 0002:00001604       ??_C@_0CH@KNOH@models?1powerups?1health?1small_cro@ 30098604     bg_misc.obj
 0002:00001634       ??_C@_0BJ@LKOK@sound?1items?1s_health?4wav?$AA@ 30098634     bg_misc.obj
 0002:00001654       ??_C@_0BC@HBNN@item_health_small?$AA@ 30098654     bg_misc.obj
 0002:0000166c       ??_C@_0M@LPCG@Heavy?5Armor?$AA@ 3009866c     bg_misc.obj
 0002:0000167c       ??_C@_0BA@LPLH@icons?1iconr_red?$AA@ 3009867c     bg_misc.obj
 0002:00001690       ??_C@_0CE@HDBK@models?1powerups?1armor?1armor_red?4@ 30098690     bg_misc.obj
 0002:000016bc       ??_C@_0BA@GFMA@item_armor_body?$AA@ 300986bc     bg_misc.obj
 0002:000016d0       ??_C@_05KFDN@Armor?$AA@    300986d0     bg_misc.obj
 0002:000016d8       ??_C@_0BD@NCPP@icons?1iconr_yellow?$AA@ 300986d8     bg_misc.obj
 0002:000016f0       ??_C@_0CE@HFCD@models?1powerups?1armor?1armor_yel?4@ 300986f0     bg_misc.obj
 0002:0000171c       ??_C@_0BI@BDMK@sound?1misc?1ar2_pkup?4wav?$AA@ 3009871c     bg_misc.obj
 0002:00001738       ??_C@_0BC@GPNI@item_armor_combat?$AA@ 30098738     bg_misc.obj
 0002:00001750       ??_C@_0M@KPGH@Armor?5Shard?$AA@ 30098750     bg_misc.obj
 0002:00001760       ??_C@_0BC@BIPJ@icons?1iconr_shard?$AA@ 30098760     bg_misc.obj
 0002:00001778       ??_C@_0CH@FIOC@models?1powerups?1armor?1shard_sphe@ 30098778     bg_misc.obj
 0002:000017a8       ??_C@_0CA@DPKE@models?1powerups?1armor?1shard?4md3?$AA@ 300987a8     bg_misc.obj
 0002:000017d0       ??_C@_0BI@IDIM@sound?1misc?1ar1_pkup?4wav?$AA@ 300987d0     bg_misc.obj
 0002:000017ec       ??_C@_0BB@JODA@item_armor_shard?$AA@ 300987ec     bg_misc.obj
 0002:00001800       ??_C@_00A@?$AA@            30098800     bg_misc.obj
 0002:00001804       ??_C@_0BH@HPPA@HoldableItem?5not?5found?$AA@ 30098804     bg_misc.obj
 0002:00001820       ??_C@_0CB@NJCB@Couldn?8t?5find?5item?5for?5weapon?5?$CFi@ 30098820     bg_misc.obj
 0002:00001848       __real@4@c0049000000000000000 30098848     bg_misc.obj
 0002:0000184c       __real@4@40049000000000000000 3009884c     bg_misc.obj
 0002:00001850       __real@4@c004c800000000000000 30098850     bg_misc.obj
 0002:00001854       __real@4@4004b000000000000000 30098854     bg_misc.obj
 0002:00001858       ??_C@_0CG@LBIF@BG_CanItemBeGrabbed?3?5unknown?5enu@ 30098858     bg_misc.obj
 0002:00001888       ??_C@_0BM@HEIN@BG_CanItemBeGrabbed?3?5IT_BAD?$AA@ 30098888     bg_misc.obj
 0002:000018ac       ??_C@_0CI@DJME@BG_CanItemBeGrabbed?3?5index?5out?5o@ 300988ac     bg_misc.obj
 0002:000018dc       ??_C@_0CK@CFCO@BG_EvaluateTrajectory?3?5unknown?5t@ 300988dc     bg_misc.obj
 0002:00001910       __real@8@4007c800000000000000 30098910     bg_misc.obj
 0002:0000191c       __real@4@00000000000000000000 3009891c     bg_misc.obj
 0002:00001920       __real@4@4000c90fdb0000000000 30098920     bg_misc.obj
 0002:00001928       __real@8@3ff583126e978d4fe000 30098928     bg_misc.obj
 0002:00001934       ??_C@_0CP@HAJH@BG_EvaluateTrajectoryDelta?3?5unkn@ 30098934     bg_misc.obj
 0002:0000196c       __real@4@4008c800000000000000 3009896c     bg_misc.obj
 0002:00001970       __real@8@3ffe8000000000000000 30098970     bg_misc.obj
 0002:0000197c       ??_C@_0DA@GE@Cgame?5event?5svt?5?$CF5d?5?9?$DO?5?$CF5d?3?5num?5@ 3009897c     bg_misc.obj
 0002:000019b8       __real@8@00000000000000000000 300989b8     bg_misc.obj
 0002:000019c4       ??_C@_0L@IGHG@showevents?$AA@ 300989c4     bg_misc.obj
 0002:000019d4       __real@4@4004b400000000000000 300989d4     bg_misc.obj
 0002:000019d8       __real@8@3ff7b400000000000000 300989d8     bg_pmove.obj
 0002:000019e4       __real@4@3fff8000000000000000 300989e4     bg_pmove.obj
 0002:000019e8       __real@8@4005fe00000000000000 300989e8     bg_pmove.obj
 0002:000019f4       __real@4@4006c800000000000000 300989f4     bg_pmove.obj
 0002:000019f8       __real@4@40038000000000000000 300989f8     bg_pmove.obj
 0002:000019fc       __real@4@40018000000000000000 300989fc     bg_pmove.obj
 0002:00001a00       __real@4@4003f000000000000000 30098a00     bg_pmove.obj
 0002:00001a04       __real@4@4002a000000000000000 30098a04     bg_pmove.obj
 0002:00001a08       __real@4@4005c800000000000000 30098a08     bg_pmove.obj
 0002:00001a0c       __real@4@c0038000000000000000 30098a0c     bg_pmove.obj
 0002:00001a10       __real@8@3fff8000000000000000 30098a10     bg_pmove.obj
 0002:00001a20       __real@8@4000c000000000000000 30098a20     bg_pmove.obj
 0002:00001a2c       __real@4@4003a000000000000000 30098a2c     bg_pmove.obj
 0002:00001a30       __real@8@3fffc000000000000000 30098a30     bg_pmove.obj
 0002:00001a3c       __real@4@c006c800000000000000 30098a3c     bg_pmove.obj
 0002:00001a40       ??_C@_08OEON@?$CFi?3Land?6?$AA@ 30098a40     bg_pmove.obj
 0002:00001a4c       ??_C@_09KHNP@?$CFi?3steep?6?$AA@ 30098a4c     bg_pmove.obj
 0002:00001a58       __real@4@3ffeb333330000000000 30098a58     bg_pmove.obj
 0002:00001a5c       ??_C@_0M@CLKI@?$CFi?3kickoff?6?$AA@ 30098a5c     bg_pmove.obj
 0002:00001a70       __real@8@3ffd8000000000000000 30098a70     bg_pmove.obj
 0002:00001a7c       __real@4@4001e000000000000000 30098a7c     bg_pmove.obj
 0002:00001a80       __real@4@4004a000000000000000 30098a80     bg_pmove.obj
 0002:00001a84       __real@4@4004f000000000000000 30098a84     bg_pmove.obj
 0002:00001a88       __real@8@3ff1d1b71758e2196800 30098a88     bg_pmove.obj
 0002:00001a94       __real@4@40008000000000000000 30098a94     bg_pmove.obj
 0002:00001a98       ??_C@_0N@LFAC@?$CFi?3allsolid?6?$AA@ 30098a98     bg_pmove.obj
 0002:00001aa8       __real@4@40058000000000000000 30098aa8     bg_pmove.obj
 0002:00001aac       ??_C@_08DAML@?$CFi?3lift?6?$AA@ 30098aac     bg_pmove.obj
 0002:00001ab8       __real@4@c003c000000000000000 30098ab8     bg_pmove.obj
 0002:00001abc       __real@4@4001a000000000000000 30098abc     bg_pmove.obj
 0002:00001ac0       __real@8@3fffa666666666666800 30098ac0     bg_pmove.obj
 0002:00001ad0       __real@8@3ffbccccccccccccd000 30098ad0     bg_slidemove.obj
 0002:00001ae0       __real@8@3ffefd70a3d70a3d7000 30098ae0     bg_slidemove.obj
 0002:00001aec       ??_C@_0M@CBLA@?$CFi?3stepped?6?$AA@ 30098aec     bg_slidemove.obj
 0002:00001afc       __real@4@4002f000000000000000 30098afc     bg_slidemove.obj
 0002:00001b00       __real@4@4002b000000000000000 30098b00     bg_slidemove.obj
 0002:00001b04       ??_C@_0BE@CFBB@?$CFi?3bend?5can?8t?5step?6?$AA@ 30098b04     bg_slidemove.obj
 0002:00001b20       __real@8@3ffeb333333333333000 30098b20     bg_slidemove.obj
 0002:00001b2c       __real@4@40039000000000000000 30098b2c     bg_slidemove.obj
 0002:00001b30       ??_C@_0N@PFEC@loaddeferred?$AA@ 30098b30     cg_consolecmds.obj
 0002:00001b40       ??_C@_0L@FPP@startOrbit?$AA@ 30098b40     cg_consolecmds.obj
 0002:00001b50       ??_C@_04NEDF@tcmd?$AA@     30098b50     cg_consolecmds.obj
 0002:00001b58       ??_C@_0P@FLLG@vtell_attacker?$AA@ 30098b58     cg_consolecmds.obj
 0002:00001b6c       ??_C@_0N@EBKM@vtell_target?$AA@ 30098b6c     cg_consolecmds.obj
 0002:00001b7c       ??_C@_0O@IBDB@tell_attacker?$AA@ 30098b7c     cg_consolecmds.obj
 0002:00001b8c       ??_C@_0M@DEIJ@tell_target?$AA@ 30098b8c     cg_consolecmds.obj
 0002:00001b9c       ??_C@_06IJLN@weapon?$AA@   30098b9c     cg_consolecmds.obj
 0002:00001ba4       ??_C@_08KKEF@weapprev?$AA@ 30098ba4     cg_consolecmds.obj
 0002:00001bb0       ??_C@_08FDMA@weapnext?$AA@ 30098bb0     cg_consolecmds.obj
 0002:00001bbc       ??_C@_08POMM@sizedown?$AA@ 30098bbc     cg_consolecmds.obj
 0002:00001bc8       ??_C@_06IFPB@sizeup?$AA@   30098bc8     cg_consolecmds.obj
 0002:00001bd0       ??_C@_05POM@?9zoom?$AA@    30098bd0     cg_consolecmds.obj
 0002:00001bd8       ??_C@_05MPDD@?$CLzoom?$AA@ 30098bd8     cg_consolecmds.obj
 0002:00001be0       ??_C@_07BJGL@?9scores?$AA@ 30098be0     cg_consolecmds.obj
 0002:00001bec       ??_C@_07POBG@?$CLscores?$AA@ 30098bec     cg_consolecmds.obj
 0002:00001bf8       ??_C@_07NEL@viewpos?$AA@   30098bf8     cg_consolecmds.obj
 0002:00001c04       ??_C@_08HKGI@prevskin?$AA@ 30098c04     cg_consolecmds.obj
 0002:00001c10       ??_C@_08FNMJ@nextskin?$AA@ 30098c10     cg_consolecmds.obj
 0002:00001c1c       ??_C@_09DDNN@prevframe?$AA@ 30098c1c     cg_consolecmds.obj
 0002:00001c28       ??_C@_09NAPK@nextframe?$AA@ 30098c28     cg_consolecmds.obj
 0002:00001c34       ??_C@_09BKGD@testmodel?$AA@ 30098c34     cg_consolecmds.obj
 0002:00001c40       ??_C@_07JGDN@testgun?$AA@  30098c40     cg_consolecmds.obj
 0002:00001c4c       ??_C@_08EBEP@gc?5?$CFi?5?$CFi?$AA@ 30098c4c     cg_consolecmds.obj
 0002:00001c58       ??_C@_0M@FLKF@cg_viewsize?$AA@ 30098c58     cg_consolecmds.obj
 0002:00001c68       ??_C@_02JAFN@?$CFi?$AA@    30098c68     cg_consolecmds.obj
 0002:00001c6c       ??_C@_0BB@DJMJ@?$CI?$CFi?5?$CFi?5?$CFi?$CJ?5?3?5?$CFi?6?$AA@ 30098c6c     cg_consolecmds.obj
 0002:00001c80       ??_C@_05FILO@score?$AA@    30098c80     cg_consolecmds.obj
 0002:00001c88       ??_C@_0L@BGHL@tell?5?$CFi?5?$CFs?$AA@ 30098c88     cg_consolecmds.obj
 0002:00001c98       ??_C@_0M@DDKP@vtell?5?$CFi?5?$CFs?$AA@ 30098c98     cg_consolecmds.obj
 0002:00001ca8       ??_C@_0BE@GEFO@cg_thirdPersonRange?$AA@ 30098ca8     cg_consolecmds.obj
 0002:00001cc0       ??_C@_03HFMC@100?$AA@      30098cc0     cg_consolecmds.obj
 0002:00001cc4       ??_C@_0BE@BKEC@cg_thirdPersonAngle?$AA@ 30098cc4     cg_consolecmds.obj
 0002:00001cdc       ??_C@_01FBAH@1?$AA@        30098cdc     cg_consolecmds.obj
 0002:00001ce0       ??_C@_01PLFL@5?$AA@        30098ce0     cg_consolecmds.obj
 0002:00001ce4       ??_C@_0P@LBPA@cg_thirdPerson?$AA@ 30098ce4     cg_consolecmds.obj
 0002:00001cf8       ??_C@_0P@JCFN@cg_cameraOrbit?$AA@ 30098cf8     cg_consolecmds.obj
 0002:00001d0c       ??_C@_01PLJA@0?$AA@        30098d0c     cg_consolecmds.obj
 0002:00001d10       ??_C@_09KOCP@developer?$AA@ 30098d10     cg_consolecmds.obj
 0002:00001d1c       ??_C@_0M@JPKM@loaddefered?$AA@ 30098d1c     cg_consolecmds.obj
 0002:00001d2c       ??_C@_08PDLF@teamtask?$AA@ 30098d2c     cg_consolecmds.obj
 0002:00001d38       ??_C@_05KKBO@stats?$AA@    30098d38     cg_consolecmds.obj
 0002:00001d40       ??_C@_08PEM@teamvote?$AA@  30098d40     cg_consolecmds.obj
 0002:00001d4c       ??_C@_0N@OPKJ@callteamvote?$AA@ 30098d4c     cg_consolecmds.obj
 0002:00001d5c       ??_C@_04CFLO@vote?$AA@     30098d5c     cg_consolecmds.obj
 0002:00001d64       ??_C@_08BDO@callvote?$AA@  30098d64     cg_consolecmds.obj
 0002:00001d70       ??_C@_0L@NFLA@setviewpos?$AA@ 30098d70     cg_consolecmds.obj
 0002:00001d80       ??_C@_06JDOB@addbot?$AA@   30098d80     cg_consolecmds.obj
 0002:00001d88       ??_C@_09IADL@levelshot?$AA@ 30098d88     cg_consolecmds.obj
 0002:00001d94       ??_C@_06DDCP@follow?$AA@   30098d94     cg_consolecmds.obj
 0002:00001d9c       ??_C@_04CJJD@team?$AA@     30098d9c     cg_consolecmds.obj
 0002:00001da4       ??_C@_06GMBK@noclip?$AA@   30098da4     cg_consolecmds.obj
 0002:00001dac       ??_C@_08BHIO@notarget?$AA@ 30098dac     cg_consolecmds.obj
 0002:00001db8       ??_C@_03IPJE@god?$AA@      30098db8     cg_consolecmds.obj
 0002:00001dbc       ??_C@_04JEOP@give?$AA@     30098dbc     cg_consolecmds.obj
 0002:00001dc4       ??_C@_06ONLB@votell?$AA@   30098dc4     cg_consolecmds.obj
 0002:00001dcc       ??_C@_0L@KCIN@vosay_team?$AA@ 30098dcc     cg_consolecmds.obj
 0002:00001ddc       ??_C@_05DIJB@vosay?$AA@    30098ddc     cg_consolecmds.obj
 0002:00001de4       ??_C@_06BKGN@vtaunt?$AA@   30098de4     cg_consolecmds.obj
 0002:00001dec       ??_C@_05LFCE@vtell?$AA@    30098dec     cg_consolecmds.obj
 0002:00001df4       ??_C@_09ICHE@vsay_team?$AA@ 30098df4     cg_consolecmds.obj
 0002:00001e00       ??_C@_04KNAG@vsay?$AA@     30098e00     cg_consolecmds.obj
 0002:00001e08       ??_C@_04HKFA@tell?$AA@     30098e08     cg_consolecmds.obj
 0002:00001e10       ??_C@_08PAEI@say_team?$AA@ 30098e10     cg_consolecmds.obj
 0002:00001e1c       ??_C@_03NJAM@say?$AA@      30098e1c     cg_consolecmds.obj
 0002:00001e20       ??_C@_04CHLA@kill?$AA@     30098e20     cg_consolecmds.obj
 0002:00001e28       __real@8@3ffd89374bc6a7efa000 30098e28     cg_draw.obj
 0002:00001e38       __real@8@bffe8000000000000000 30098e38     cg_draw.obj
 0002:00001e48       __real@8@4004f000000000000000 30098e48     cg_draw.obj
 0002:00001e58       __real@8@4009fa00000000000000 30098e58     cg_draw.obj
 0002:00001e64       ??_C@_0CE@ILIC@CG_DrawActive?3?5Undefined?5stereoV@ 30098e64     cg_draw.obj
 0002:00001e90       __real@8@400a8000000000000000 30098e90     cg_draw.obj
 0002:00001ea0       __real@8@4005b400000000000000 30098ea0     cg_draw.obj
 0002:00001eb0       __real@8@4003a000000000000000 30098eb0     cg_draw.obj
 0002:00001ec0       __real@8@4008fa00000000000000 30098ec0     cg_draw.obj
 0002:00001ecc       __real@4@4007f000000000000000 30098ecc     cg_draw.obj
 0002:00001ed0       __real@4@4000c000000000000000 30098ed0     cg_draw.obj
 0002:00001ed4       __real@4@4009fa00000000000000 30098ed4     cg_draw.obj
 0002:00001ed8       __real@8@4001a000000000000000 30098ed8     cg_draw.obj
 0002:00001ee8       __real@8@4006b400000000000000 30098ee8     cg_draw.obj
 0002:00001ef8       __real@8@4000c90fdb0000000000 30098ef8     cg_draw.obj
 0002:00001f04       __real@4@400dfffe000000000000 30098f04     cg_draw.obj
 0002:00001f08       __real@4@4006b400000000000000 30098f08     cg_draw.obj
 0002:00001f0c       __real@4@4007fa00000000000000 30098f0c     cg_draw.obj
 0002:00001f10       ??_C@_01FMOK@n?$AA@        30098f10     cg_draw.obj
 0002:00001f14       __real@4@4008a000000000000000 30098f14     cg_draw.obj
 0002:00001f18       ??_C@_0BH@JKEJ@time?3?$CFi?5snap?3?$CFi?5cmd?3?$CFi?$AA@ 30098f18     cg_draw.obj
 0002:00001f34       ??_C@_05EKKA@?$CFifps?$AA@ 30098f34     cg_draw.obj
 0002:00001f3c       ??_C@_07GKJN@?$CFi?3?$CFi?$CFi?$AA@ 30098f3c     cg_draw.obj
 0002:00001f48       __real@4@40028000000000000000 30098f48     cg_draw.obj
 0002:00001f4c       ??_C@_07MFLA@?$CF3i?5?$CF3i?$AA@ 30098f4c     cg_draw.obj
 0002:00001f58       ??_C@_07CAMD@unknown?$AA@  30098f58     cg_draw.obj
 0002:00001f64       ??_C@_03MDDI@?$CF2i?$AA@   30098f64     cg_draw.obj
 0002:00001f68       __real@4@4003c000000000000000 30098f68     cg_draw.obj
 0002:00001f70       __real@8@4004c000000000000000 30098f70     cg_draw.obj
 0002:00001f7c       __real@4@4008fa00000000000000 30098f7c     cg_draw.obj
 0002:00001f80       __real@4@4004c000000000000000 30098f80     cg_draw.obj
 0002:00001f84       ??_C@_02MECO@?$CFd?$AA@    30098f84     cg_draw.obj
 0002:00001f88       ??_C@_03KFOL@snc?$AA@      30098f88     cg_draw.obj
 0002:00001f8c       __real@4@4008e100000000000000 30098f8c     cg_draw.obj
 0002:00001f90       __real@4@40079600000000000000 30098f90     cg_draw.obj
 0002:00001f94       ??_C@_0P@LLJP@gfx?12d?1net?4tga?$AA@ 30098f94     cg_draw.obj
 0002:00001fa8       ??_C@_0BH@MGLK@Connection?5Interrupted?$AA@ 30098fa8     cg_draw.obj
 0002:00001fc4       __real@4@4007a000000000000000 30098fc4     cg_draw.obj
 0002:00001fc8       __real@4@3ffe8000000000000000 30098fc8     cg_draw.obj
 0002:00001fcc       __real@4@40108000000000000000 30098fcc     cg_draw.obj
 0002:00001fd0       ??_C@_0CI@JDBI@press?5ESC?5and?5use?5the?5JOIN?5menu?5@ 30098fd0     cg_draw.obj
 0002:00002000       ??_C@_0BA@GILD@waiting?5to?5play?$AA@ 30099000     cg_draw.obj
 0002:00002014       ??_C@_09KPLM@SPECTATOR?$AA@ 30099014     cg_draw.obj
 0002:00002020       ??_C@_0BJ@NFHG@VOTE?$CI?$CFi?$CJ?3?$CFs?5yes?3?$CFi?5no?3?$CFi?$AA@ 30099020     cg_draw.obj
 0002:00002040       ??_C@_0BN@HMOL@TEAMVOTE?$CI?$CFi?$CJ?3?$CFs?5yes?3?$CFi?5no?3?$CFi?$AA@ 30099040     cg_draw.obj
 0002:00002064       ??_C@_09FIOM@following?$AA@ 30099064     cg_draw.obj
 0002:00002070       ??_C@_0BB@ENDJ@LOW?5AMMO?5WARNING?$AA@ 30099070     cg_draw.obj
 0002:00002084       ??_C@_0M@OEIB@OUT?5OF?5AMMO?$AA@ 30099084     cg_draw.obj
 0002:00002094       ??_C@_0O@PGJD@Starts?5in?3?5?$CFi?$AA@ 30099094     cg_draw.obj
 0002:000020a4       __real@4@3fff8ccccd0000000000 300990a4     cg_draw.obj
 0002:000020a8       ??_C@_0BB@EEMI@Capture?5the?5Flag?$AA@ 300990a8     cg_draw.obj
 0002:000020bc       ??_C@_0BA@MBBA@Team?5Deathmatch?$AA@ 300990bc     cg_draw.obj
 0002:000020d0       ??_C@_0N@EEDI@Free?5For?5All?$AA@ 300990d0     cg_draw.obj
 0002:000020e0       __real@4@3fffc000000000000000 300990e0     cg_draw.obj
 0002:000020e4       ??_C@_08EFHA@?$CFs?5vs?5?$CFs?$AA@ 300990e4     cg_draw.obj
 0002:000020f0       ??_C@_0BE@BHPN@Waiting?5for?5players?$AA@ 300990f0     cg_draw.obj
 0002:00002108       __real@8@3ffb8000000000000000 30099108     cg_drawtools.obj
 0002:00002118       __real@8@40058000000000000000 30099118     cg_drawtools.obj
 0002:00002128       __real@8@4006c800000000000000 30099128     cg_drawtools.obj
 0002:00002138       __real@8@4003f000000000000000 30099138     cg_drawtools.obj
 0002:00002148       __real@8@40048400000000000000 30099148     cg_drawtools.obj
 0002:00002158       __real@8@3ffdae147ae147ae1000 30099158     cg_drawtools.obj
 0002:00002168       __real@8@3ffea8f5c28f5c28f800 30099168     cg_drawtools.obj
 0002:00002174       __real@4@40078000000000000000 30099174     cg_drawtools.obj
 0002:00002178       __real@4@3ffec000000000000000 30099178     cg_drawtools.obj
 0002:00002180       __real@8@3ffeccccccccccccd000 30099180     cg_drawtools.obj
 0002:0000218c       __real@4@4003d800000000000000 3009918c     cg_drawtools.obj
 0002:00002190       __real@8@4001c000000000000000 30099190     cg_effects.obj
 0002:0000219c       __real@4@4006fa00000000000000 3009919c     cg_effects.obj
 0002:000021a0       __real@4@4006ff00000000000000 300991a0     cg_effects.obj
 0002:000021a4       __real@4@4007b400000000000000 300991a4     cg_effects.obj
 0002:000021a8       ??_C@_0BM@JAPN@CG_MakeExplosion?3?5msec?5?$DN?5?$CFi?$AA@ 300991a8     cg_effects.obj
 0002:000021cc       __real@4@400abb80000000000000 300991cc     cg_effects.obj
 0002:000021d0       __real@8@4006fa00000000000000 300991d0     cg_effects.obj
 0002:000021dc       __real@4@400bbb80000000000000 300991dc     cg_effects.obj
 0002:000021e0       __real@8@4000a000000000000000 300991e0     cg_effects.obj
 0002:000021f0       __real@8@40069600000000000000 300991f0     cg_effects.obj
 0002:00002200       __real@8@4005c800000000000000 30099200     cg_effects.obj
 0002:0000220c       __real@4@40098000000000000000 3009920c     cg_ents.obj
 0002:00002210       ??_C@_0DB@DJJL@CG_InterpoateEntityPosition?3?5cg?4@ 30099210     cg_ents.obj
 0002:0000224c       ??_C@_0BF@EHGG@Bad?5entity?5type?3?5?$CFi?6?$AA@ 3009924c     cg_ents.obj
 0002:00002268       __real@4@c0098000000000000000 30099268     cg_ents.obj
 0002:0000226c       __real@4@4002c000000000000000 3009926c     cg_ents.obj
 0002:00002270       __real@8@40018000000000000000 30099270     cg_ents.obj
 0002:00002280       __real@8@3ff7a3d70a3d70a3d800 30099280     cg_ents.obj
 0002:00002290       __real@8@3feea7c5ac471b478800 30099290     cg_ents.obj
 0002:0000229c       ??_C@_0BM@PKOK@Bad?5item?5index?5?$CFi?5on?5entity?$AA@ 3009929c     cg_ents.obj
 0002:000022c0       __real@8@4007b400000000000000 300992c0     cg_ents.obj
 0002:000022d0       __real@8@40078000000000000000 300992d0     cg_ents.obj
 0002:000022dc       ??_C@_04DCMN@?$CFs?$CFs?$AA@ 300992dc     cg_event.obj
 0002:000022e4       ??_C@_04PDOI@?$CFith?$AA@  300992e4     cg_event.obj
 0002:000022ec       ??_C@_04HKPD@?$CFird?$AA@  300992ec     cg_event.obj
 0002:000022f4       ??_C@_04PPKE@?$CFind?$AA@  300992f4     cg_event.obj
 0002:000022fc       ??_C@_04MFCJ@?$CFist?$AA@  300992fc     cg_event.obj
 0002:00002304       ??_C@_04KDNJ@13th?$AA@     30099304     cg_event.obj
 0002:0000230c       ??_C@_04PBMP@12th?$AA@     3009930c     cg_event.obj
 0002:00002314       ??_C@_04HPE@11th?$AA@      30099314     cg_event.obj
 0002:0000231c       ??_C@_07KLCB@?$FO33rd?$FO7?$AA@ 3009931c     cg_event.obj
 0002:00002328       ??_C@_07MKLN@?$FO12nd?$FO7?$AA@ 30099328     cg_event.obj
 0002:00002334       ??_C@_07HDD@?$FO41st?$FO7?$AA@ 30099334     cg_event.obj
 0002:00002340       ??_C@_09HHNH@Tied?5for?5?$AA@ 30099340     cg_event.obj
 0002:0000234c       ??_C@_0P@JFCH@?$CKpain100_1?4wav?$AA@ 3009934c     cg_event.obj
 0002:00002360       ??_C@_0O@HGHK@?$CKpain75_1?4wav?$AA@ 30099360     cg_event.obj
 0002:00002370       ??_C@_0O@HCOE@?$CKpain50_1?4wav?$AA@ 30099370     cg_event.obj
 0002:00002380       ??_C@_0O@BOOO@?$CKpain25_1?4wav?$AA@ 30099380     cg_event.obj
 0002:00002390       ??_C@_0BC@OMBO@Unknown?5event?3?5?$CFi?$AA@ 30099390     cg_event.obj
 0002:000023a8       ??_C@_08JDLL@UNKNOWN?6?$AA@ 300993a8     cg_event.obj
 0002:000023b4       ??_C@_0P@DNIF@EV_DEBUG_LINE?6?$AA@ 300993b4     cg_event.obj
 0002:000023c8       ??_C@_0BF@NIF@EV_STOPLOOPINGSOUND?6?$AA@ 300993c8     cg_event.obj
 0002:000023e4       ??_C@_0P@EPLO@EV_GIB_PLAYER?6?$AA@ 300993e4     cg_event.obj
 0002:000023f8       ??_C@_0BC@BBCM@EV_POWERUP_REGEN?6?$AA@ 300993f8     cg_event.obj
 0002:00002410       ??_C@_0BH@BDJM@EV_POWERUP_BATTLESUIT?6?$AA@ 30099410     cg_event.obj
 0002:0000242c       ??_C@_0BB@PKNK@EV_POWERUP_QUAD?6?$AA@ 3009942c     cg_event.obj
 0002:00002440       ??_C@_0N@POFK@EV_OBITUARY?6?$AA@ 30099440     cg_event.obj
 0002:00002450       ??_C@_0N@ELAE@?$CKdeath?$CFi?4wav?$AA@ 30099450     cg_event.obj
 0002:00002460       ??_C@_0L@HGJI@EV_DEATHx?6?$AA@ 30099460     cg_event.obj
 0002:00002470       ??_C@_08OLFD@EV_PAIN?6?$AA@ 30099470     cg_event.obj
 0002:0000247c       ??_C@_0BG@OIPH@EV_GLOBAL_TEAM_SOUND?6?$AA@ 3009947c     cg_event.obj
 0002:00002498       ??_C@_0BB@PNKO@EV_GLOBAL_SOUND?6?$AA@ 30099498     cg_event.obj
 0002:000024ac       ??_C@_0BC@HLGB@EV_GENERAL_SOUND?6?$AA@ 300994ac     cg_event.obj
 0002:000024c4       ??_C@_0M@HLGC@EV_SHOTGUN?6?$AA@ 300994c4     cg_event.obj
 0002:000024d4       ??_C@_0BF@KHP@EV_BULLET_HIT_FLESH?6?$AA@ 300994d4     cg_event.obj
 0002:000024f0       ??_C@_0BE@FNME@EV_BULLET_HIT_WALL?6?$AA@ 300994f0     cg_event.obj
 0002:00002508       ??_C@_0O@DKMH@EV_RAILTRAIL?6?$AA@ 30099508     cg_event.obj
 0002:00002518       ??_C@_0BH@DKJM@EV_MISSILE_MISS_METAL?6?$AA@ 30099518     cg_event.obj
 0002:00002534       ??_C@_0BB@IMB@EV_MISSILE_MISS?6?$AA@ 30099534     cg_event.obj
 0002:00002548       ??_C@_0BA@HEPK@EV_MISSILE_HIT?6?$AA@ 30099548     cg_event.obj
 0002:0000255c       ??_C@_0O@BLF@EV_SCOREPLUM?6?$AA@ 3009955c     cg_event.obj
 0002:0000256c       ??_C@_0BD@GMFL@EV_GRENADE_BOUNCE?6?$AA@ 3009956c     cg_event.obj
 0002:00002584       ??_C@_0BB@KAJM@EV_ITEM_RESPAWN?6?$AA@ 30099584     cg_event.obj
 0002:00002598       ??_C@_0N@NEMC@EV_ITEM_POP?6?$AA@ 30099598     cg_event.obj
 0002:000025a8       ??_C@_0BI@LJLH@EV_PLAYER_TELEPORT_OUT?6?$AA@ 300995a8     cg_event.obj
 0002:000025c4       ??_C@_0BH@IOAG@EV_PLAYER_TELEPORT_IN?6?$AA@ 300995c4     cg_event.obj
 0002:000025e0       ??_C@_0P@ECMN@EV_USE_ITEM14?6?$AA@ 300995e0     cg_event.obj
 0002:000025f4       ??_C@_0P@CDJI@EV_USE_ITEM13?6?$AA@ 300995f4     cg_event.obj
 0002:00002608       ??_C@_0P@DFDC@EV_USE_ITEM12?6?$AA@ 30099608     cg_event.obj
 0002:0000261c       ??_C@_0P@OMN@EV_USE_ITEM11?6?$AA@ 3009961c     cg_event.obj
 0002:00002630       ??_C@_0P@BIGH@EV_USE_ITEM10?6?$AA@ 30099630     cg_event.obj
 0002:00002644       ??_C@_0O@LOAA@EV_USE_ITEM9?6?$AA@ 30099644     cg_event.obj
 0002:00002654       ??_C@_0O@KIKK@EV_USE_ITEM8?6?$AA@ 30099654     cg_event.obj
 0002:00002664       ??_C@_0O@HMKL@EV_USE_ITEM7?6?$AA@ 30099664     cg_event.obj
 0002:00002674       ??_C@_0O@GKAB@EV_USE_ITEM6?6?$AA@ 30099674     cg_event.obj
 0002:00002684       ??_C@_0O@FBPO@EV_USE_ITEM5?6?$AA@ 30099684     cg_event.obj
 0002:00002694       ??_C@_0O@EHFE@EV_USE_ITEM4?6?$AA@ 30099694     cg_event.obj
 0002:000026a4       ??_C@_0O@CGAB@EV_USE_ITEM3?6?$AA@ 300996a4     cg_event.obj
 0002:000026b4       ??_C@_0O@DAKL@EV_USE_ITEM2?6?$AA@ 300996b4     cg_event.obj
 0002:000026c4       ??_C@_0O@LFE@EV_USE_ITEM1?6?$AA@ 300996c4     cg_event.obj
 0002:000026d4       ??_C@_0O@BNPO@EV_USE_ITEM0?6?$AA@ 300996d4     cg_event.obj
 0002:000026e4       ??_C@_0BA@PFOI@EV_FIRE_WEAPON?6?$AA@ 300996e4     cg_event.obj
 0002:000026f8       ??_C@_0BC@JHHM@EV_CHANGE_WEAPON?6?$AA@ 300996f8     cg_event.obj
 0002:00002710       ??_C@_0L@EHFO@EV_NOAMMO?6?$AA@ 30099710     cg_event.obj
 0002:00002720       ??_C@_0BH@CNCH@EV_GLOBAL_ITEM_PICKUP?6?$AA@ 30099720     cg_event.obj
 0002:0000273c       ??_C@_0BA@LJKF@EV_ITEM_PICKUP?6?$AA@ 3009973c     cg_event.obj
 0002:00002750       ??_C@_09IIFC@?$CKgasp?4wav?$AA@ 30099750     cg_event.obj
 0002:0000275c       ??_C@_0BA@CPOA@EV_WATER_CLEAR?6?$AA@ 3009975c     cg_event.obj
 0002:00002770       ??_C@_0BA@CFGA@EV_WATER_UNDER?6?$AA@ 30099770     cg_event.obj
 0002:00002784       ??_C@_0BA@MKDB@EV_WATER_LEAVE?6?$AA@ 30099784     cg_event.obj
 0002:00002798       ??_C@_0BA@HOEJ@EV_WATER_TOUCH?6?$AA@ 30099798     cg_event.obj
 0002:000027ac       ??_C@_0L@GPKI@?$CKtaunt?4wav?$AA@ 300997ac     cg_event.obj
 0002:000027bc       ??_C@_09IPKD@EV_TAUNT?6?$AA@ 300997bc     cg_event.obj
 0002:000027c8       ??_C@_08IIFH@EV_JUMP?6?$AA@ 300997c8     cg_event.obj
 0002:000027d4       ??_C@_0L@EIFI@?$CKjump1?4wav?$AA@ 300997d4     cg_event.obj
 0002:000027e4       ??_C@_0N@NGHL@EV_JUMP_PAD?6?$AA@ 300997e4     cg_event.obj
 0002:000027f4       __real@4@40048000000000000000 300997f4     cg_event.obj
 0002:000027f8       ??_C@_08JOOK@EV_STEP?6?$AA@ 300997f8     cg_event.obj
 0002:00002804       ??_C@_0L@HOHM@?$CKfall1?4wav?$AA@ 30099804     cg_event.obj
 0002:00002814       ??_C@_0N@HHME@EV_FALL_FAR?6?$AA@ 30099814     cg_event.obj
 0002:00002824       ??_C@_0BA@EHKG@EV_FALL_MEDIUM?6?$AA@ 30099824     cg_event.obj
 0002:00002838       ??_C@_0P@HPFI@EV_FALL_SHORT?6?$AA@ 30099838     cg_event.obj
 0002:0000284c       ??_C@_08LKAO@EV_SWIM?6?$AA@ 3009984c     cg_event.obj
 0002:00002858       ??_C@_0N@OIMO@EV_FOOTWADE?6?$AA@ 30099858     cg_event.obj
 0002:00002868       ??_C@_0P@HGDB@EV_FOOTSPLASH?6?$AA@ 30099868     cg_event.obj
 0002:0000287c       ??_C@_0BD@OBHC@EV_FOOTSTEP_METAL?6?$AA@ 3009987c     cg_event.obj
 0002:00002894       ??_C@_0N@PJNP@EV_FOOTSTEP?6?$AA@ 30099894     cg_event.obj
 0002:000028a4       ??_C@_0L@NDEP@ZEROEVENT?6?$AA@ 300998a4     cg_event.obj
 0002:000028b4       ??_C@_0BE@MLMA@ent?3?$CF3i?5?5event?3?$CF3i?5?$AA@ 300998b4     cg_event.obj
 0002:000028cc       ??_C@_09PFNP@?$CFs?5died?4?6?$AA@ 300998cc     cg_event.obj
 0002:000028d8       ??_C@_0M@JPCK@?$CFs?5?$CFs?5?$CFs?$CFs?6?$AA@ 300998d8     cg_event.obj
 0002:000028e8       ??_C@_0O@BPF@was?5killed?5by?$AA@ 300998e8     cg_event.obj
 0002:000028f8       ??_C@_0BC@EAHL@?8s?5personal?5space?$AA@ 300998f8     cg_event.obj
 0002:00002910       ??_C@_0BA@BOPB@tried?5to?5invade?$AA@ 30099910     cg_event.obj
 0002:00002924       ??_C@_06BFBK@?8s?5BFG?$AA@ 30099924     cg_event.obj
 0002:0000292c       ??_C@_0P@PJPG@was?5blasted?5by?$AA@ 3009992c     cg_event.obj
 0002:00002940       ??_C@_0BE@LNLI@was?5electrocuted?5by?$AA@ 30099940     cg_event.obj
 0002:00002958       ??_C@_0O@CAMJ@was?5railed?5by?$AA@ 30099958     cg_event.obj
 0002:00002968       ??_C@_0N@FLCB@?8s?5plasmagun?$AA@ 30099968     cg_event.obj
 0002:00002978       ??_C@_0O@BKII@was?5melted?5by?$AA@ 30099978     cg_event.obj
 0002:00002988       ??_C@_0O@FKJL@almost?5dodged?$AA@ 30099988     cg_event.obj
 0002:00002998       ??_C@_09LGPO@?8s?5rocket?$AA@ 30099998     cg_event.obj
 0002:000029a4       ??_C@_0M@JEIL@?8s?5shrapnel?$AA@ 300999a4     cg_event.obj
 0002:000029b4       ??_C@_0BA@LEDP@was?5shredded?5by?$AA@ 300999b4     cg_event.obj
 0002:000029c8       ??_C@_0L@JJNB@?8s?5grenade?$AA@ 300999c8     cg_event.obj
 0002:000029d8       ??_C@_03CNHG@ate?$AA@      300999d8     cg_event.obj
 0002:000029dc       ??_C@_0BD@BGJE@was?5gunned?5down?5by?$AA@ 300999dc     cg_event.obj
 0002:000029f4       ??_C@_0BF@PMCN@was?5machinegunned?5by?$AA@ 300999f4     cg_event.obj
 0002:00002a10       ??_C@_0BA@CIJ@was?5pummeled?5by?$AA@ 30099a10     cg_event.obj
 0002:00002a24       ??_C@_0O@IGPI@was?5caught?5by?$AA@ 30099a24     cg_event.obj
 0002:00002a34       ??_C@_06IPHI@noname?$AA@   30099a34     cg_event.obj
 0002:00002a3c       ??_C@_0P@MJDJ@You?5fragged?5?$CFs?$AA@ 30099a3c     cg_event.obj
 0002:00002a50       ??_C@_0CA@LJDA@You?5fragged?5?$CFs?6?$CFs?5place?5with?5?$CFi?$AA@ 30099a50     cg_event.obj
 0002:00002a78       ??_C@_07GGCL@?$CFs?5?$CFs?4?6?$AA@ 30099a78     cg_event.obj
 0002:00002a84       ??_C@_0P@GGKD@killed?5himself?$AA@ 30099a84     cg_event.obj
 0002:00002a98       ??_C@_0O@IICO@killed?5itself?$AA@ 30099a98     cg_event.obj
 0002:00002aa8       ??_C@_0P@POKH@killed?5herself?$AA@ 30099aa8     cg_event.obj
 0002:00002abc       ??_C@_0BP@NJLA@should?5have?5used?5a?5smaller?5gun?$AA@ 30099abc     cg_event.obj
 0002:00002ae4       ??_C@_0P@JFBO@melted?5himself?$AA@ 30099ae4     cg_event.obj
 0002:00002af8       ??_C@_0O@DFIK@melted?5itself?$AA@ 30099af8     cg_event.obj
 0002:00002b08       ??_C@_0P@NBK@melted?5herself?$AA@ 30099b08     cg_event.obj
 0002:00002b1c       ??_C@_0BA@IPDB@blew?5himself?5up?$AA@ 30099b1c     cg_event.obj
 0002:00002b30       ??_C@_0P@HBOM@blew?5itself?5up?$AA@ 30099b30     cg_event.obj
 0002:00002b44       ??_C@_0BA@KPAE@blew?5herself?5up?$AA@ 30099b44     cg_event.obj
 0002:00002b58       ??_C@_0BL@HMJI@tripped?5on?5his?5own?5grenade?$AA@ 30099b58     cg_event.obj
 0002:00002b78       ??_C@_0BL@JILB@tripped?5on?5its?5own?5grenade?$AA@ 30099b78     cg_event.obj
 0002:00002b98       ??_C@_0BL@KODL@tripped?5on?5her?5own?5grenade?$AA@ 30099b98     cg_event.obj
 0002:00002bb8       ??_C@_0BH@BPGN@was?5in?5the?5wrong?5place?$AA@ 30099bb8     cg_event.obj
 0002:00002bd4       ??_C@_0O@NKOE@saw?5the?5light?$AA@ 30099bd4     cg_event.obj
 0002:00002be4       ??_C@_0BP@CFPL@does?5a?5back?5flip?5into?5the?5lava?$AA@ 30099be4     cg_event.obj
 0002:00002c0c       ??_C@_06BOLJ@melted?$AA@   30099c0c     cg_event.obj
 0002:00002c14       ??_C@_0BB@PFDP@sank?5like?5a?5rock?$AA@ 30099c14     cg_event.obj
 0002:00002c28       ??_C@_0N@NNIF@was?5squished?$AA@ 30099c28     cg_event.obj
 0002:00002c38       ??_C@_08LBFE@cratered?$AA@ 30099c38     cg_event.obj
 0002:00002c44       ??_C@_08LLKL@suicides?$AA@ 30099c44     cg_event.obj
 0002:00002c50       ??_C@_02KMNC@?$FO7?$AA@    30099c50     cg_event.obj
 0002:00002c54       ??_C@_0CB@KOEE@CG_Obituary?3?5target?5out?5of?5range@ 30099c54     cg_event.obj
 0002:00002c7c       ??_C@_06CKFM@Use?5?$CFs?$AA@ 30099c7c     cg_event.obj
 0002:00002c84       ??_C@_0P@HAHF@No?5item?5to?5use?$AA@ 30099c84     cg_event.obj
 0002:00002c98       ??_C@_0BN@DNDF@sound?1player?1announce?1?$CFs?4wav?$AA@ 30099c98     cg_info.obj
 0002:00002cbc       ??_C@_05JPCA@sarge?$AA@    30099cbc     cg_info.obj
 0002:00002cc4       ??_C@_0CJ@EIAD@models?1players?1characters?1?$CFs?1ico@ 30099cc4     cg_info.obj
 0002:00002cf8       ??_C@_0BO@BKAG@models?1players?1?$CFs?1icon_?$CFs?4tga?$AA@ 30099cf8     cg_info.obj
 0002:00002d1c       ??_C@_07FMEP@default?$AA@  30099d1c     cg_info.obj
 0002:00002d28       ??_C@_05LHJL@model?$AA@    30099d28     cg_info.obj
 0002:00002d30       ??_C@_0BA@JKMP@capturelimit?5?$CFi?$AA@ 30099d30     cg_info.obj
 0002:00002d44       ??_C@_0N@ELFE@capturelimit?$AA@ 30099d44     cg_info.obj
 0002:00002d54       ??_C@_0N@IHCP@fraglimit?5?$CFi?$AA@ 30099d54     cg_info.obj
 0002:00002d64       ??_C@_09DPJO@fraglimit?$AA@ 30099d64     cg_info.obj
 0002:00002d70       ??_C@_0N@IEML@timelimit?5?$CFi?$AA@ 30099d70     cg_info.obj
 0002:00002d80       ??_C@_09GBNJ@timelimit?$AA@ 30099d80     cg_info.obj
 0002:00002d8c       ??_C@_0BB@POJO@Unknown?5Gametype?$AA@ 30099d8c     cg_info.obj
 0002:00002da0       ??_C@_0BB@EBBK@Capture?5The?5Flag?$AA@ 30099da0     cg_info.obj
 0002:00002db4       ??_C@_0L@MDJG@Tournament?$AA@ 30099db4     cg_info.obj
 0002:00002dc4       ??_C@_0O@IEE@Single?5Player?$AA@ 30099dc4     cg_info.obj
 0002:00002dd4       ??_C@_0BD@EJEG@CHEATS?5ARE?5ENABLED?$AA@ 30099dd4     cg_info.obj
 0002:00002dec       ??_C@_09CPMK@sv_cheats?$AA@ 30099dec     cg_info.obj
 0002:00002df8       ??_C@_0M@PCHP@Pure?5Server?$AA@ 30099df8     cg_info.obj
 0002:00002e08       ??_C@_07OEHJ@sv_pure?$AA@  30099e08     cg_info.obj
 0002:00002e14       ??_C@_0M@IHPH@sv_hostname?$AA@ 30099e14     cg_info.obj
 0002:00002e24       ??_C@_0L@HNAD@sv_running?$AA@ 30099e24     cg_info.obj
 0002:00002e34       ??_C@_0BF@PPE@Awaiting?5snapshot?4?4?4?$AA@ 30099e34     cg_info.obj
 0002:00002e50       ??_C@_0O@NNNJ@Loading?4?4?4?5?$CFs?$AA@ 30099e50     cg_info.obj
 0002:00002e60       ??_C@_0BA@OBBJ@levelShotDetail?$AA@ 30099e60     cg_info.obj
 0002:00002e74       ??_C@_0BE@GNPF@menu?1art?1unknownmap?$AA@ 30099e74     cg_info.obj
 0002:00002e8c       ??_C@_0BC@PKPD@levelshots?1?$CFs?4tga?$AA@ 30099e8c     cg_info.obj
 0002:00002ea4       ??_C@_07DOCO@mapname?$AA@  30099ea4     cg_info.obj
 0002:00002eb0       ??_C@_0BP@IMDD@CG_FreeLocalEntity?3?5not?5active?$AA@ 30099eb0     cg_localents.obj
 0002:00002ed8       __real@4@c0008000000000000000 30099ed8     cg_localents.obj
 0002:00002ee0       __real@8@40038000000000000000 30099ee0     cg_localents.obj
 0002:00002ef0       __real@8@c002a000000000000000 30099ef0     cg_localents.obj
 0002:00002efc       __real@4@4005dc00000000000000 30099efc     cg_localents.obj
 0002:00002f00       __real@4@4008ff00000000000000 30099f00     cg_localents.obj
 0002:00002f04       ??_C@_0P@IAID@Bad?5leType?3?5?$CFi?$AA@ 30099f04     cg_localents.obj
 0002:00002f18       __real@8@40028000000000000000 30099f18     cg_localents.obj
 0002:00002f28       __real@8@4004a800000000000000 30099f28     cg_localents.obj
 0002:00002f38       __real@8@3ffda8f5c28f5c28f800 30099f38     cg_localents.obj
 0002:00002f44       ??_C@_0BJ@GGEM@gfx?12d?1numbers?1minus_32b?$AA@ 30099f44     cg_main.obj
 0002:00002f64       ??_C@_0BI@IIHO@gfx?12d?1numbers?1nine_32b?$AA@ 30099f64     cg_main.obj
 0002:00002f80       ??_C@_0BJ@HKOM@gfx?12d?1numbers?1eight_32b?$AA@ 30099f80     cg_main.obj
 0002:00002fa0       ??_C@_0BJ@FIML@gfx?12d?1numbers?1seven_32b?$AA@ 30099fa0     cg_main.obj
 0002:00002fc0       ??_C@_0BH@CBJN@gfx?12d?1numbers?1six_32b?$AA@ 30099fc0     cg_main.obj
 0002:00002fdc       ??_C@_0BI@DOAJ@gfx?12d?1numbers?1five_32b?$AA@ 30099fdc     cg_main.obj
 0002:00002ff8       ??_C@_0BI@FDL@gfx?12d?1numbers?1four_32b?$AA@ 30099ff8     cg_main.obj
 0002:00003014       ??_C@_0BJ@GFMA@gfx?12d?1numbers?1three_32b?$AA@ 3009a014     cg_main.obj
 0002:00003034       ??_C@_0BH@BJ@gfx?12d?1numbers?1two_32b?$AA@ 3009a034     cg_main.obj
 0002:00003050       ??_C@_0BH@MNJD@gfx?12d?1numbers?1one_32b?$AA@ 3009a050     cg_main.obj
 0002:0000306c       ??_C@_0BI@EDF@gfx?12d?1numbers?1zero_32b?$AA@ 3009a06c     cg_main.obj
 0002:00003088       ??_C@_03IPNG@0?40?$AA@     3009a088     cg_main.obj
 0002:0000308c       ??_C@_0BB@HDHO@cg_trueLightning?$AA@ 3009a08c     cg_main.obj
 0002:000030a0       ??_C@_0N@EBOA@cg_oldPlasma?$AA@ 3009a0a0     cg_main.obj
 0002:000030b0       ??_C@_0N@GNFL@cg_oldRocket?$AA@ 3009a0b0     cg_main.obj
 0002:000030c0       ??_C@_0L@FHEA@cg_oldRail?$AA@ 3009a0c0     cg_main.obj
 0002:000030d0       ??_C@_0L@PHAP@ui_bigFont?$AA@ 3009a0d0     cg_main.obj
 0002:000030e0       ??_C@_04KIIB@0?425?$AA@    3009a0e0     cg_main.obj
 0002:000030e8       ??_C@_0N@BFNN@ui_smallFont?$AA@ 3009a0e8     cg_main.obj
 0002:000030f8       ??_C@_0BF@BNDL@cg_noProjectileTrail?$AA@ 3009a0f8     cg_main.obj
 0002:00003114       ??_C@_0L@KEPC@cg_noTaunt?$AA@ 3009a114     cg_main.obj
 0002:00003124       ??_C@_01KPCI@8?$AA@        3009a124     cg_main.obj
 0002:00003128       ??_C@_0L@CBI@pmove_msec?$AA@ 3009a128     cg_main.obj
 0002:00003138       ??_C@_0M@JGEC@pmove_fixed?$AA@ 3009a138     cg_main.obj
 0002:00003148       ??_C@_0P@LNMC@com_cameraMode?$AA@ 3009a148     cg_main.obj
 0002:0000315c       ??_C@_0BB@BNNL@cg_smoothClients?$AA@ 3009a15c     cg_main.obj
 0002:00003170       ??_C@_0O@IKOD@cg_scorePlums?$AA@ 3009a170     cg_main.obj
 0002:00003180       ??_C@_09PFGA@timescale?$AA@ 3009a180     cg_main.obj
 0002:0000318c       ??_C@_0BG@FDKM@cg_timescaleFadeSpeed?$AA@ 3009a18c     cg_main.obj
 0002:000031a8       ??_C@_0BE@JLAO@cg_timescaleFadeEnd?$AA@ 3009a1a8     cg_main.obj
 0002:000031c0       ??_C@_02IGL@50?$AA@        3009a1c0     cg_main.obj
 0002:000031c4       ??_C@_0BE@HBPP@cg_cameraOrbitDelay?$AA@ 3009a1c4     cg_main.obj
 0002:000031dc       ??_C@_0BF@HEGL@g_synchronousClients?$AA@ 3009a1dc     cg_main.obj
 0002:000031f8       ??_C@_09NJEO@com_blood?$AA@ 3009a1f8     cg_main.obj
 0002:00003204       ??_C@_09ENJF@cl_paused?$AA@ 3009a204     cg_main.obj
 0002:00003210       ??_C@_0BA@ELKM@com_buildScript?$AA@ 3009a210     cg_main.obj
 0002:00003224       ??_C@_0P@HDE@cg_noVoiceText?$AA@ 3009a224     cg_main.obj
 0002:00003238       ??_C@_0BA@LDAC@cg_noVoiceChats?$AA@ 3009a238     cg_main.obj
 0002:0000324c       ??_C@_0BB@PNJP@cg_teamChatsOnly?$AA@ 3009a24c     cg_main.obj
 0002:00003260       ??_C@_0O@ECAM@cg_drawFriend?$AA@ 3009a260     cg_main.obj
 0002:00003270       ??_C@_08LFEE@cg_stats?$AA@ 3009a270     cg_main.obj
 0002:0000327c       ??_C@_0M@FNOC@teamoverlay?$AA@ 3009a27c     cg_main.obj
 0002:0000328c       ??_C@_0BD@HGHB@cg_drawTeamOverlay?$AA@ 3009a28c     cg_main.obj
 0002:000032a4       ??_C@_0BA@HEHH@cg_deferPlayers?$AA@ 3009a2a4     cg_main.obj
 0002:000032b8       ??_C@_0BA@PHDH@cg_predictItems?$AA@ 3009a2b8     cg_main.obj
 0002:000032cc       ??_C@_0O@JDJH@cg_forceModel?$AA@ 3009a2cc     cg_main.obj
 0002:000032dc       ??_C@_0BC@MGOP@cg_teamChatHeight?$AA@ 3009a2dc     cg_main.obj
 0002:000032f4       ??_C@_04LHEB@3000?$AA@     3009a2f4     cg_main.obj
 0002:000032fc       ??_C@_0BA@NLMO@cg_teamChatTime?$AA@ 3009a2fc     cg_main.obj
 0002:00003310       ??_C@_02BOMB@40?$AA@       3009a310     cg_main.obj
 0002:00003314       ??_C@_0BA@LOGF@cg_tracerlength?$AA@ 3009a314     cg_main.obj
 0002:00003328       ??_C@_0P@JDDG@cg_tracerwidth?$AA@ 3009a328     cg_main.obj
 0002:0000333c       ??_C@_0BA@JHJM@cg_tracerchance?$AA@ 3009a33c     cg_main.obj
 0002:00003350       ??_C@_0N@IIAN@cg_footsteps?$AA@ 3009a350     cg_main.obj
 0002:00003360       ??_C@_0M@MOEE@cg_showmiss?$AA@ 3009a360     cg_main.obj
 0002:00003370       ??_C@_0BB@BPFD@cg_noplayeranims?$AA@ 3009a370     cg_main.obj
 0002:00003384       ??_C@_0N@PIGE@cg_nopredict?$AA@ 3009a384     cg_main.obj
 0002:00003394       ??_C@_0O@KAC@cg_errordecay?$AA@ 3009a394     cg_main.obj
 0002:000033a4       ??_C@_0P@NKCK@cg_debugevents?$AA@ 3009a3a4     cg_main.obj
 0002:000033b8       ??_C@_0BB@CONE@cg_debugposition?$AA@ 3009a3b8     cg_main.obj
 0002:000033cc       ??_C@_0N@GCOC@cg_debuganim?$AA@ 3009a3cc     cg_main.obj
 0002:000033dc       ??_C@_0N@EFHB@cg_animspeed?$AA@ 3009a3dc     cg_main.obj
 0002:000033ec       ??_C@_03HAGP@0?43?$AA@     3009a3ec     cg_main.obj
 0002:000033f0       ??_C@_0O@HJHK@cg_swingSpeed?$AA@ 3009a3f0     cg_main.obj
 0002:00003400       ??_C@_0L@FDJB@cg_bobroll?$AA@ 3009a400     cg_main.obj
 0002:00003410       ??_C@_0M@JFLD@cg_bobpitch?$AA@ 3009a410     cg_main.obj
 0002:00003420       ??_C@_08BIFL@cg_bobup?$AA@ 3009a420     cg_main.obj
 0002:0000342c       ??_C@_05HONO@0?4005?$AA@   3009a42c     cg_main.obj
 0002:00003434       ??_C@_0L@OHDH@cg_runroll?$AA@ 3009a434     cg_main.obj
 0002:00003444       ??_C@_05CLDL@0?4002?$AA@   3009a444     cg_main.obj
 0002:0000344c       ??_C@_0M@CMAH@cg_runpitch?$AA@ 3009a44c     cg_main.obj
 0002:0000345c       ??_C@_01ECJ@3?$AA@         3009a45c     cg_main.obj
 0002:00003460       ??_C@_0O@MAPC@cg_centertime?$AA@ 3009a460     cg_main.obj
 0002:00003470       ??_C@_07BCIE@cg_gunZ?$AA@  3009a470     cg_main.obj
 0002:0000347c       ??_C@_07ONDN@cg_gunY?$AA@  3009a47c     cg_main.obj
 0002:00003488       ??_C@_07EHKK@cg_gunX?$AA@  3009a488     cg_main.obj
 0002:00003494       ??_C@_03GPIO@400?$AA@      3009a494     cg_main.obj
 0002:00003498       ??_C@_0BB@PGOB@cg_railTrailTime?$AA@ 3009a498     cg_main.obj
 0002:000034ac       ??_C@_0N@JOJA@cg_lagometer?$AA@ 3009a4ac     cg_main.obj
 0002:000034bc       ??_C@_08PKCG@cg_marks?$AA@ 3009a4bc     cg_main.obj
 0002:000034c8       ??_C@_0P@CMNJ@cg_simpleItems?$AA@ 3009a4c8     cg_main.obj
 0002:000034dc       ??_C@_04IIFP@2500?$AA@     3009a4dc     cg_main.obj
 0002:000034e4       ??_C@_0N@OGMG@cg_brassTime?$AA@ 3009a4e4     cg_main.obj
 0002:000034f4       ??_C@_0O@BAFO@cg_crosshairY?$AA@ 3009a4f4     cg_main.obj
 0002:00003504       ??_C@_0O@LKMJ@cg_crosshairX?$AA@ 3009a504     cg_main.obj
 0002:00003514       ??_C@_0BD@DAFD@cg_crosshairHealth?$AA@ 3009a514     cg_main.obj
 0002:0000352c       ??_C@_02MDGC@24?$AA@       3009a52c     cg_main.obj
 0002:00003530       ??_C@_0BB@OMED@cg_crosshairSize?$AA@ 3009a530     cg_main.obj
 0002:00003544       ??_C@_0P@FGKI@cg_drawRewards?$AA@ 3009a544     cg_main.obj
 0002:00003558       ??_C@_0BG@JAIH@cg_drawCrosshairNames?$AA@ 3009a558     cg_main.obj
 0002:00003574       ??_C@_01FBMM@4?$AA@        3009a574     cg_main.obj
 0002:00003578       ??_C@_0BB@BIJH@cg_drawCrosshair?$AA@ 3009a578     cg_main.obj
 0002:0000358c       ??_C@_0BA@GOGM@cg_drawAttacker?$AA@ 3009a58c     cg_main.obj
 0002:000035a0       ??_C@_0BD@CH@cg_drawAmmoWarning?$AA@ 3009a5a0     cg_main.obj
 0002:000035b8       ??_C@_0N@PODO@cg_drawIcons?$AA@ 3009a5b8     cg_main.obj
 0002:000035c8       ??_C@_0P@CEHN@cg_draw3dIcons?$AA@ 3009a5c8     cg_main.obj
 0002:000035dc       ??_C@_0BA@EDDP@cg_drawSnapshot?$AA@ 3009a5dc     cg_main.obj
 0002:000035f0       ??_C@_0L@PKAE@cg_drawFPS?$AA@ 3009a5f0     cg_main.obj
 0002:00003600       ??_C@_0N@DNNE@cg_drawTimer?$AA@ 3009a600     cg_main.obj
 0002:00003610       ??_C@_0O@FKIK@cg_drawStatus?$AA@ 3009a610     cg_main.obj
 0002:00003620       ??_C@_09EBKA@cg_draw2D?$AA@ 3009a620     cg_main.obj
 0002:0000362c       ??_C@_07KIDA@cg_gibs?$AA@  3009a62c     cg_main.obj
 0002:00003638       ??_C@_0L@FKLD@cg_shadows?$AA@ 3009a638     cg_main.obj
 0002:00003648       ??_C@_03CFIK@0?44?$AA@     3009a648     cg_main.obj
 0002:0000364c       ??_C@_0BE@GEEB@cg_stereoSeparation?$AA@ 3009a64c     cg_main.obj
 0002:00003664       ??_C@_02OHJF@90?$AA@       3009a664     cg_main.obj
 0002:00003668       ??_C@_06PPLP@cg_fov?$AA@   3009a668     cg_main.obj
 0002:00003670       ??_C@_04JOPH@22?45?$AA@    3009a670     cg_main.obj
 0002:00003678       ??_C@_0L@DLEJ@cg_zoomfov?$AA@ 3009a678     cg_main.obj
 0002:00003688       ??_C@_0L@JOKD@cg_drawGun?$AA@ 3009a688     cg_main.obj
 0002:00003698       ??_C@_0O@LDOP@cg_autoswitch?$AA@ 3009a698     cg_main.obj
 0002:000036a8       ??_C@_09DOEH@cg_ignore?$AA@ 3009a6a8     cg_main.obj
 0002:000036b4       ??_C@_0BL@KEBB@vmMain?3?5unknown?5command?5?$CFi?$AA@ 3009a6b4     cg_main.obj
 0002:000036d4       ??_C@_0P@KCPO@team_headmodel?$AA@ 3009a6d4     cg_main.obj
 0002:000036e8       ??_C@_0L@MKIK@team_model?$AA@ 3009a6e8     cg_main.obj
 0002:000036f8       ??_C@_09MLPD@headmodel?$AA@ 3009a6f8     cg_main.obj
 0002:00003704       ??_C@_02DILL@?$CFs?$AA@    3009a704     cg_main.obj
 0002:00003708       ??_C@_07BFBH@?$CFs?5?5?5?5?5?$AA@ 3009a708     cg_main.obj
 0002:00003714       ??_C@_0BP@LEPA@CG_ConfigString?3?5bad?5index?3?5?$CFi?$AA@ 3009a714     cg_main.obj
 0002:0000373c       ??_C@_07JEGC@clients?$AA@  3009a73c     cg_main.obj
 0002:00003748       ??_C@_08EHHP@graphics?$AA@ 3009a748     cg_main.obj
 0002:00003754       ??_C@_06HADE@sounds?$AA@   3009a754     cg_main.obj
 0002:0000375c       ??_C@_0O@JOGL@collision?5map?$AA@ 3009a75c     cg_main.obj
 0002:0000376c       ??_C@_0CD@MNBB@Client?1Server?5game?5mismatch?3?5?$CFs?1@ 3009a76c     cg_main.obj
 0002:00003798       ??_C@_08LEPD@baseq3?91?$AA@ 3009a798     cg_main.obj
 0002:000037a8       __real@8@4007f000000000000000 3009a7a8     cg_main.obj
 0002:000037b8       __real@8@4008a000000000000000 3009a7b8     cg_main.obj
 0002:000037c4       ??_C@_0BI@GNCN@menu?1art?1font2_prop?4tga?$AA@ 3009a7c4     cg_main.obj
 0002:000037e0       ??_C@_0BM@LJCL@menu?1art?1font1_prop_glo?4tga?$AA@ 3009a7e0     cg_main.obj
 0002:00003804       ??_C@_0BI@PNGL@menu?1art?1font1_prop?4tga?$AA@ 3009a804     cg_main.obj
 0002:00003820       ??_C@_05GMF@white?$AA@     3009a820     cg_main.obj
 0002:00003828       ??_C@_0BA@OLJD@gfx?12d?1bigchars?$AA@ 3009a828     cg_main.obj
 0002:0000383c       ??_C@_0CD@KOIH@sound?1weapons?1grenade?1hgrenb2a?4w@ 3009a83c     cg_main.obj
 0002:00003868       ??_C@_0CD@BAGH@sound?1weapons?1grenade?1hgrenb1a?4w@ 3009a868     cg_main.obj
 0002:00003894       ??_C@_0BJ@HHNN@sound?1items?1protect3?4wav?$AA@ 3009a894     cg_main.obj
 0002:000038b4       ??_C@_0CC@LDHC@sound?1weapons?1plasma?1plasmx1a?4wa@ 3009a8b4     cg_main.obj
 0002:000038dc       ??_C@_0CC@DPBF@sound?1weapons?1rocket?1rocklx1a?4wa@ 3009a8dc     cg_main.obj
 0002:00003904       ??_C@_0CD@DKPN@sound?1weapons?1railgun?1railgf1a?4w@ 3009a904     cg_main.obj
 0002:00003930       ??_C@_0CC@NBBC@sound?1weapons?1machinegun?1ric3?4wa@ 3009a930     cg_main.obj
 0002:00003958       ??_C@_0CC@HBDH@sound?1weapons?1machinegun?1ric2?4wa@ 3009a958     cg_main.obj
 0002:00003980       ??_C@_0CC@JBFI@sound?1weapons?1machinegun?1ric1?4wa@ 3009a980     cg_main.obj
 0002:000039a8       ??_C@_0BI@PONI@sound?1items?1damage3?4wav?$AA@ 3009a9a8     cg_main.obj
 0002:000039c4       ??_C@_0CD@LJPM@sound?1player?1footsteps?1clank?$CFi?4w@ 3009a9c4     cg_main.obj
 0002:000039f0       ??_C@_0CE@MLNE@sound?1player?1footsteps?1splash?$CFi?4@ 3009a9f0     cg_main.obj
 0002:00003a1c       ??_C@_0CE@MLH@sound?1player?1footsteps?1energy?$CFi?4@ 3009aa1c     cg_main.obj
 0002:00003a48       ??_C@_0CC@DOOK@sound?1player?1footsteps?1mech?$CFi?4wa@ 3009aa48     cg_main.obj
 0002:00003a70       ??_C@_0CD@CINL@sound?1player?1footsteps?1flesh?$CFi?4w@ 3009aa70     cg_main.obj
 0002:00003a9c       ??_C@_0CC@DPAJ@sound?1player?1footsteps?1boot?$CFi?4wa@ 3009aa9c     cg_main.obj
 0002:00003ac4       ??_C@_0CC@FHIL@sound?1player?1footsteps?1step?$CFi?4wa@ 3009aac4     cg_main.obj
 0002:00003aec       ??_C@_0BI@NOB@sound?1world?1jumppad?4wav?$AA@ 3009aaec     cg_main.obj
 0002:00003b08       ??_C@_0BJ@CEFN@sound?1player?1watr_un?4wav?$AA@ 3009ab08     cg_main.obj
 0002:00003b28       ??_C@_0BK@IONP@sound?1player?1watr_out?4wav?$AA@ 3009ab28     cg_main.obj
 0002:00003b48       ??_C@_0BJ@IFNO@sound?1player?1watr_in?4wav?$AA@ 3009ab48     cg_main.obj
 0002:00003b68       ??_C@_0BM@NEMN@sound?1feedback?1lostlead?4wav?$AA@ 3009ab68     cg_main.obj
 0002:00003b8c       ??_C@_0BM@OCDK@sound?1feedback?1tiedlead?4wav?$AA@ 3009ab8c     cg_main.obj
 0002:00003bb0       ??_C@_0BN@PKAH@sound?1feedback?1takenlead?4wav?$AA@ 3009abb0     cg_main.obj
 0002:00003bd4       ??_C@_0BL@LGKL@sound?1feedback?1defense?4wav?$AA@ 3009abd4     cg_main.obj
 0002:00003bf4       ??_C@_0BK@HGAB@sound?1feedback?1assist?4wav?$AA@ 3009abf4     cg_main.obj
 0002:00003c14       ??_C@_0BP@FFCB@sound?1feedback?1humiliation?4wav?$AA@ 3009ac14     cg_main.obj
 0002:00003c3c       ??_C@_0BK@OBGG@sound?1feedback?1denied?4wav?$AA@ 3009ac3c     cg_main.obj
 0002:00003c5c       ??_C@_0BN@PGHI@sound?1feedback?1excellent?4wav?$AA@ 3009ac5c     cg_main.obj
 0002:00003c80       ??_C@_0BO@EDAB@sound?1feedback?1impressive?4wav?$AA@ 3009ac80     cg_main.obj
 0002:00003ca4       ??_C@_0BH@NKIK@sound?1feedback?1hit?4wav?$AA@ 3009aca4     cg_main.obj
 0002:00003cc0       ??_C@_0BH@OPKF@sound?1player?1land1?4wav?$AA@ 3009acc0     cg_main.obj
 0002:00003cdc       ??_C@_0BG@MMD@sound?1player?1talk?4wav?$AA@ 3009acdc     cg_main.obj
 0002:00003cf8       ??_C@_0BJ@LMIL@sound?1weapons?1noammo?4wav?$AA@ 3009acf8     cg_main.obj
 0002:00003d18       ??_C@_0BJ@MKPL@sound?1items?1respawn1?4wav?$AA@ 3009ad18     cg_main.obj
 0002:00003d38       ??_C@_0BI@JK@sound?1world?1teleout?4wav?$AA@ 3009ad38     cg_main.obj
 0002:00003d54       ??_C@_0BH@MACJ@sound?1world?1telein?4wav?$AA@ 3009ad54     cg_main.obj
 0002:00003d70       ??_C@_0BJ@MPBB@sound?1player?1gibimp3?4wav?$AA@ 3009ad70     cg_main.obj
 0002:00003d90       ??_C@_0BJ@GPDE@sound?1player?1gibimp2?4wav?$AA@ 3009ad90     cg_main.obj
 0002:00003db0       ??_C@_0BJ@IPFL@sound?1player?1gibimp1?4wav?$AA@ 3009adb0     cg_main.obj
 0002:00003dd0       ??_C@_0BK@GJHN@sound?1player?1gibsplt1?4wav?$AA@ 3009add0     cg_main.obj
 0002:00003df0       ??_C@_0BM@HEPC@sound?1items?1use_nothing?4wav?$AA@ 3009adf0     cg_main.obj
 0002:00003e14       ??_C@_0BI@PGLK@sound?1items?1wearoff?4wav?$AA@ 3009ae14     cg_main.obj
 0002:00003e30       ??_C@_0BJ@IJDF@sound?1weapons?1change?4wav?$AA@ 3009ae30     cg_main.obj
 0002:00003e50       ??_C@_0CG@LCFH@sound?1weapons?1machinegun?1buletby@ 3009ae50     cg_main.obj
 0002:00003e80       ??_C@_0CD@ILML@sound?1teamplay?1voc_enemy_1flag?4w@ 3009ae80     cg_main.obj
 0002:00003eac       ??_C@_0CC@DFIN@sound?1teamplay?1voc_team_1flag?4wa@ 3009aeac     cg_main.obj
 0002:00003ed4       ??_C@_0CA@PPDH@sound?1feedback?1voc_holyshit?4wav?$AA@ 3009aed4     cg_main.obj
 0002:00003efc       ??_C@_0CA@LAJI@sound?1teamplay?1voc_you_flag?4wav?$AA@ 3009aefc     cg_main.obj
 0002:00003f24       ??_C@_0CB@IFFJ@sound?1teamplay?1voc_team_flag?4wav@ 3009af24     cg_main.obj
 0002:00003f4c       ??_C@_0CC@MDIC@sound?1teamplay?1voc_enemy_flag?4wa@ 3009af4c     cg_main.obj
 0002:00003f74       ??_C@_0CF@PNHC@sound?1teamplay?1voc_blue_returned@ 3009af74     cg_main.obj
 0002:00003fa0       ??_C@_0CE@HHAE@sound?1teamplay?1voc_red_returned?4@ 3009afa0     cg_main.obj
 0002:00003fcc       ??_C@_0CG@PHNE@sound?1teamplay?1flagtaken_opponen@ 3009afcc     cg_main.obj
 0002:00003ffc       ??_C@_0CG@NELF@sound?1teamplay?1flagtaken_yourtea@ 3009affc     cg_main.obj
 0002:0000402c       ??_C@_0CH@MJMC@sound?1teamplay?1flagreturn_oppone@ 3009b02c     cg_main.obj
 0002:0000405c       ??_C@_0CH@OKKD@sound?1teamplay?1flagreturn_yourte@ 3009b05c     cg_main.obj
 0002:0000408c       ??_C@_0CI@EBAB@sound?1teamplay?1flagcapture_oppon@ 3009b08c     cg_main.obj
 0002:000040bc       ??_C@_0CD@PNIB@sound?1teamplay?1voc_blue_scores?4w@ 3009b0bc     cg_main.obj
 0002:000040e8       ??_C@_0CC@COOK@sound?1teamplay?1voc_red_scores?4wa@ 3009b0e8     cg_main.obj
 0002:00004110       ??_C@_0CA@BJLL@sound?1feedback?1hit_teammate?4wav?$AA@ 3009b110     cg_main.obj
 0002:00004138       ??_C@_0BN@BEJD@sound?1feedback?1teamstied?4wav?$AA@ 3009b138     cg_main.obj
 0002:0000415c       ??_C@_0BN@KLBA@sound?1feedback?1blueleads?4wav?$AA@ 3009b15c     cg_main.obj
 0002:00004180       ??_C@_0BM@PPAE@sound?1feedback?1redleads?4wav?$AA@ 3009b180     cg_main.obj
 0002:000041a4       ??_C@_0CI@GCGA@sound?1teamplay?1flagcapture_yourt@ 3009b1a4     cg_main.obj
 0002:000041d4       ??_C@_0BL@GDED@sound?1feedback?1prepare?4wav?$AA@ 3009b1d4     cg_main.obj
 0002:000041f4       ??_C@_0BJ@HPLO@sound?1feedback?1fight?4wav?$AA@ 3009b1f4     cg_main.obj
 0002:00004214       ??_C@_0BH@FJHC@sound?1feedback?1one?4wav?$AA@ 3009b214     cg_main.obj
 0002:00004230       ??_C@_0BH@JEPI@sound?1feedback?1two?4wav?$AA@ 3009b230     cg_main.obj
 0002:0000424c       ??_C@_0BJ@CGEK@sound?1feedback?1three?4wav?$AA@ 3009b24c     cg_main.obj
 0002:0000426c       ??_C@_0BL@EEJO@sound?1feedback?13_frags?4wav?$AA@ 3009b26c     cg_main.obj
 0002:0000428c       ??_C@_0BL@KOBB@sound?1feedback?12_frags?4wav?$AA@ 3009b28c     cg_main.obj
 0002:000042ac       ??_C@_0BK@LPJP@sound?1feedback?11_frag?4wav?$AA@ 3009b2ac     cg_main.obj
 0002:000042cc       ??_C@_0CA@CIFA@sound?1feedback?1sudden_death?4wav?$AA@ 3009b2cc     cg_main.obj
 0002:000042f4       ??_C@_0BM@JEGM@sound?1feedback?15_minute?4wav?$AA@ 3009b2f4     cg_main.obj
 0002:00004318       ??_C@_0BM@CDMG@sound?1feedback?11_minute?4wav?$AA@ 3009b318     cg_main.obj
 0002:0000433c       ??_C@_03JAAL@wav?$AA@      3009b33c     cg_main.obj
 0002:00004340       ??_C@_0CJ@CCML@PrecacheItem?3?5?$CFs?5has?5bad?5precach@ 3009b340     cg_main.obj
 0002:00004374       ??_C@_03OGBA@?$CK?$CFi?$AA@ 3009b374     cg_main.obj
 0002:00004378       ??_C@_09NBPF@bloodMark?$AA@ 3009b378     cg_main.obj
 0002:00004384       ??_C@_04MCIG@wake?$AA@     3009b384     cg_main.obj
 0002:0000438c       ??_C@_0L@MHIE@markShadow?$AA@ 3009b38c     cg_main.obj
 0002:0000439c       ??_C@_0BG@FAEE@gfx?1damage?1plasma_mrk?$AA@ 3009b39c     cg_main.obj
 0002:000043b8       ??_C@_0BH@IEIN@gfx?1damage?1hole_lg_mrk?$AA@ 3009b3b8     cg_main.obj
 0002:000043d4       ??_C@_0BI@MJNK@gfx?1damage?1burn_med_mrk?$AA@ 3009b3d4     cg_main.obj
 0002:000043f0       ??_C@_0BG@LFHE@gfx?1damage?1bullet_mrk?$AA@ 3009b3f0     cg_main.obj
 0002:0000440c       ??_C@_0O@JEAD@medal_capture?$AA@ 3009b40c     cg_main.obj
 0002:0000441c       ??_C@_0N@MNAM@medal_assist?$AA@ 3009b41c     cg_main.obj
 0002:0000442c       ??_C@_0N@MLPP@medal_defend?$AA@ 3009b42c     cg_main.obj
 0002:0000443c       ??_C@_0P@FFMN@medal_gauntlet?$AA@ 3009b43c     cg_main.obj
 0002:00004450       ??_C@_0BA@MJGL@medal_excellent?$AA@ 3009b450     cg_main.obj
 0002:00004464       ??_C@_0BB@KJCG@medal_impressive?$AA@ 3009b464     cg_main.obj
 0002:00004478       ??_C@_0CC@LCHI@models?1powerups?1shield?1shield?4md@ 3009b478     cg_main.obj
 0002:000044a0       ??_C@_0P@DFMD@teleportEffect?$AA@ 3009b4a0     cg_main.obj
 0002:000044b4       ??_C@_0BG@DGHM@models?1misc?1telep?4md3?$AA@ 3009b4b4     cg_main.obj
 0002:000044d0       ??_C@_0BL@DADF@models?1weaphits?1boom01?4md3?$AA@ 3009b4d0     cg_main.obj
 0002:000044f0       ??_C@_0BL@MAGG@models?1weaphits?1ring02?4md3?$AA@ 3009b4f0     cg_main.obj
 0002:00004510       ??_C@_0BL@KMEP@models?1weaphits?1bullet?4md3?$AA@ 3009b510     cg_main.obj
 0002:00004530       ??_C@_0P@DMIO@bloodExplosion?$AA@ 3009b530     cg_main.obj
 0002:00004544       ??_C@_0BB@GJFJ@sprites?1balloon3?$AA@ 3009b544     cg_main.obj
 0002:00004558       ??_C@_0BG@GELG@models?1gibs?1brain?4md3?$AA@ 3009b558     cg_main.obj
 0002:00004574       ??_C@_0BG@NJKJ@models?1gibs?1skull?4md3?$AA@ 3009b574     cg_main.obj
 0002:00004590       ??_C@_0BE@GONB@models?1gibs?1leg?4md3?$AA@ 3009b590     cg_main.obj
 0002:000045a8       ??_C@_0BK@IPCD@models?1gibs?1intestine?4md3?$AA@ 3009b5a8     cg_main.obj
 0002:000045c8       ??_C@_0BI@HDBE@models?1gibs?1forearm?4md3?$AA@ 3009b5c8     cg_main.obj
 0002:000045e4       ??_C@_0BF@JIAB@models?1gibs?1foot?4md3?$AA@ 3009b5e4     cg_main.obj
 0002:00004600       ??_C@_0BF@NOPP@models?1gibs?1fist?4md3?$AA@ 3009b600     cg_main.obj
 0002:0000461c       ??_C@_0BG@NABO@models?1gibs?1chest?4md3?$AA@ 3009b61c     cg_main.obj
 0002:00004638       ??_C@_0BE@HNLN@models?1gibs?1arm?4md3?$AA@ 3009b638     cg_main.obj
 0002:00004650       ??_C@_0BI@MMIP@models?1gibs?1abdomen?4md3?$AA@ 3009b650     cg_main.obj
 0002:0000466c       ??_C@_0CD@DFOI@models?1weapons2?1shells?1s_shell?4m@ 3009b66c     cg_main.obj
 0002:00004698       ??_C@_0CD@LGEK@models?1weapons2?1shells?1m_shell?4m@ 3009b698     cg_main.obj
 0002:000046c4       ??_C@_0BE@MFJI@gfx?12d?1colorbar?4tga?$AA@ 3009b6c4     cg_main.obj
 0002:000046dc       ??_C@_0BC@FIIO@powerups?1blueflag?$AA@ 3009b6dc     cg_main.obj
 0002:000046f4       ??_C@_0M@DEOK@sprites?1foe?$AA@ 3009b6f4     cg_main.obj
 0002:00004704       ??_C@_0BB@IOJF@icons?1iconf_blu3?$AA@ 3009b704     cg_main.obj
 0002:00004718       ??_C@_0BB@CEAC@icons?1iconf_blu2?$AA@ 3009b718     cg_main.obj
 0002:0000472c       ??_C@_0BB@GFBE@icons?1iconf_red3?$AA@ 3009b72c     cg_main.obj
 0002:00004740       ??_C@_0BB@MPID@icons?1iconf_red2?$AA@ 3009b740     cg_main.obj
 0002:00004754       ??_C@_0BB@HKAO@icons?1skull_blue?$AA@ 3009b754     cg_main.obj
 0002:00004768       ??_C@_0BA@GEKM@icons?1skull_red?$AA@ 3009b768     cg_main.obj
 0002:0000477c       ??_C@_0BO@HEAI@models?1powerups?1orb?1b_orb?4md3?$AA@ 3009b77c     cg_main.obj
 0002:000047a0       ??_C@_0BO@FAIK@models?1powerups?1orb?1r_orb?4md3?$AA@ 3009b7a0     cg_main.obj
 0002:000047c4       ??_C@_0P@NOLD@hasteSmokePuff?$AA@ 3009b7c4     cg_main.obj
 0002:000047d8       ??_C@_0P@KCNN@powerups?1regen?$AA@ 3009b7d8     cg_main.obj
 0002:000047ec       ??_C@_0BG@DGGP@powerups?1invisibility?$AA@ 3009b7ec     cg_main.obj
 0002:00004808       ??_C@_0BG@PEBI@powerups?1battleWeapon?$AA@ 3009b808     cg_main.obj
 0002:00004824       ??_C@_0BE@EPKD@powerups?1battleSuit?$AA@ 3009b824     cg_main.obj
 0002:0000483c       ??_C@_0BE@IADB@powerups?1quadWeapon?$AA@ 3009b83c     cg_main.obj
 0002:00004854       ??_C@_0O@KEKI@powerups?1quad?$AA@ 3009b854     cg_main.obj
 0002:00004864       ??_C@_0N@CIJO@icons?1noammo?$AA@ 3009b864     cg_main.obj
 0002:00004874       ??_C@_0BA@EMNI@gfx?12d?1backtile?$AA@ 3009b874     cg_main.obj
 0002:00004888       ??_C@_0BD@LP@gfx?12d?1crosshair?$CFc?$AA@ 3009b888     cg_main.obj
 0002:000048a0       ??_C@_0O@NNHH@gfx?12d?1select?$AA@ 3009b8a0     cg_main.obj
 0002:000048b0       ??_C@_0BA@EFC@gfx?1misc?1tracer?$AA@ 3009b8b0     cg_main.obj
 0002:000048c4       ??_C@_0M@MHCB@waterBubble?$AA@ 3009b8c4     cg_main.obj
 0002:000048d4       ??_C@_0N@OGHP@disconnected?$AA@ 3009b8d4     cg_main.obj
 0002:000048e4       ??_C@_09FFBB@lagometer?$AA@ 3009b8e4     cg_main.obj
 0002:000048f0       ??_C@_0L@KJM@bloodTrail?$AA@ 3009b8f0     cg_main.obj
 0002:00004900       ??_C@_0BA@GFOI@sprites?1plasma1?$AA@ 3009b900     cg_main.obj
 0002:00004914       ??_C@_0BB@PFF@shotgunSmokePuff?$AA@ 3009b914     cg_main.obj
 0002:00004928       ??_C@_0BB@MPIG@smokePuffRagePro?$AA@ 3009b928     cg_main.obj
 0002:0000493c       ??_C@_09ELFP@smokePuff?$AA@ 3009b93c     cg_main.obj
 0002:00004948       ??_C@_0BC@LCPM@menu?1tab?1time?4tga?$AA@ 3009b948     cg_main.obj
 0002:00004960       ??_C@_0BD@GFLC@menu?1tab?1score?4tga?$AA@ 3009b960     cg_main.obj
 0002:00004978       ??_C@_0BC@GMOM@menu?1tab?1ping?4tga?$AA@ 3009b978     cg_main.obj
 0002:00004990       ??_C@_0BC@JFJB@menu?1tab?1name?4tga?$AA@ 3009b990     cg_main.obj
 0002:000049a8       ??_C@_0BB@NIJN@gfx?12d?1defer?4tga?$AA@ 3009b9a8     cg_main.obj
 0002:000049bc       ??_C@_0P@EJBO@viewBloodBlend?$AA@ 3009b9bc     cg_main.obj
 0002:000049d0       ??_C@_0BE@HPMM@menu?1art?1skill5?4tga?$AA@ 3009b9d0     cg_main.obj
 0002:000049e8       ??_C@_0BE@NPOJ@menu?1art?1skill4?4tga?$AA@ 3009b9e8     cg_main.obj
 0002:00004a00       ??_C@_0BE@LPBD@menu?1art?1skill3?4tga?$AA@ 3009ba00     cg_main.obj
 0002:00004a18       ??_C@_0BE@BPDG@menu?1art?1skill2?4tga?$AA@ 3009ba18     cg_main.obj
 0002:00004a30       ??_C@_0BE@PPFJ@menu?1art?1skill1?4tga?$AA@ 3009ba30     cg_main.obj
 0002:00004a48       ??_C@_0L@KCHM@game?5media?$AA@ 3009ba48     cg_main.obj
 0002:00004a58       ??_C@_08EFLK@explode1?$AA@ 3009ba58     cg_marks.obj
 0002:00004a64       __real@4@c003a000000000000000 3009ba64     cg_marks.obj
 0002:00004a68       ??_C@_0CG@DAAF@CG_ImpactMark?5called?5with?5?$DM?$DN?50?5r@ 3009ba68     cg_marks.obj
 0002:00004a98       __real@8@4007e100000000000000 3009ba98     cg_marks.obj
 0002:00004aa8       __real@8@400abb80000000000000 3009baa8     cg_marks.obj
 0002:00004ab4       ??_C@_04JKCL@?$CFs?$CFi?$AA@ 3009bab4     cg_marks.obj
 0002:00004abc       __real@4@400b8000000000000000 3009babc     cg_marks.obj
 0002:00004ac0       __real@8@3ffee666666666666800 3009bac0     cg_marks.obj
 0002:00004acc       ??_C@_0CI@IEG@CG_ParticleSnowFlurry?5pshader?5?$DN?$DN@ 3009bacc     cg_marks.obj
 0002:00004afc       ??_C@_0CC@MGOJ@CG_ParticleSnow?5pshader?5?$DN?$DN?5ZERO?$CB@ 3009bafc     cg_marks.obj
 0002:00004b28       __real@8@4004c800000000000000 3009bb28     cg_marks.obj
 0002:00004b38       __real@8@4002a000000000000000 3009bb38     cg_marks.obj
 0002:00004b44       __real@4@bfff8000000000000000 3009bb44     cg_marks.obj
 0002:00004b48       ??_C@_0BL@MCE@CG_ParticleSmoke?5?$DN?$DN?5ZERO?$CB?6?$AA@ 3009bb48     cg_marks.obj
 0002:00004b68       __real@8@4006b300000000000000 3009bb68     cg_marks.obj
 0002:00004b74       ??_C@_0DE@FDEA@CG_ParticleExplosion?3?5unknown?5an@ 3009bb74     cg_marks.obj
 0002:00004bb4       ??_C@_0EI@FAHN@CG_ParticleExplosion?3?5animStr?5is@ 3009bbb4     cg_marks.obj
 0002:00004c0c       ??_C@_0CN@NMBB@CG_ParticleImpactSmokePuff?5pshad@ 3009bc0c     cg_marks.obj
 0002:00004c44       ??_C@_0CE@EMML@CG_Particle_Bleed?5pshader?5?$DN?$DN?5ZER@ 3009bc44     cg_marks.obj
 0002:00004c70       ??_C@_0CC@MOAM@CG_Particle_OilParticle?5?$DN?$DN?5ZERO?$CB@ 3009bc70     cg_marks.obj
 0002:00004c98       __real@8@3ffe8cccccccccccd000 3009bc98     cg_marks.obj
 0002:00004ca4       ??_C@_0BP@GCNK@CG_Particle_OilSlick?5?$DN?$DN?5ZERO?$CB?6?$AA@ 3009bca4     cg_marks.obj
 0002:00004ccc       ??_C@_0BL@MGNH@CG_OilSlickRevove?5NULL?5id?6?$AA@ 3009bccc     cg_marks.obj
 0002:00004cf0       __real@8@bfff8000000000000000 3009bcf0     cg_marks.obj
 0002:00004d00       __real@8@3ffdccccccccccccd000 3009bd00     cg_marks.obj
 0002:00004d10       __real@8@3ffe9999999999999800 3009bd10     cg_marks.obj
 0002:00004d1c       ??_C@_0BP@DJBI@CG_BloodPool?5pshader?5?$DN?$DN?5ZERO?$CB?6?$AA@ 3009bd1c     cg_marks.obj
 0002:00004d44       __real@4@3ffccccccd0000000000 3009bd44     cg_marks.obj
 0002:00004d48       __real@8@4007fa00000000000000 3009bd48     cg_marks.obj
 0002:00004d58       __real@8@400adac0000000000000 3009bd58     cg_marks.obj
 0002:00004d64       ??_C@_0L@PAPK@?$CKdrown?4wav?$AA@ 3009bd64     cg_players.obj
 0002:00004d74       ??_C@_0O@IAAP@?$CKfalling1?4wav?$AA@ 3009bd74     cg_players.obj
 0002:00004d84       ??_C@_0M@MNAN@?$CKdeath3?4wav?$AA@ 3009bd84     cg_players.obj
 0002:00004d94       ??_C@_0M@GNCI@?$CKdeath2?4wav?$AA@ 3009bd94     cg_players.obj
 0002:00004da4       ??_C@_0M@INEH@?$CKdeath1?4wav?$AA@ 3009bda4     cg_players.obj
 0002:00004db4       ??_C@_0BJ@IDLH@Unknown?5custom?5sound?3?5?$CFs?$AA@ 3009bdb4     cg_players.obj
 0002:00004dd4       ??_C@_0CH@JCI@Memory?5is?5low?4?5?5Using?5deferred?5m@ 3009bdd4     cg_players.obj
 0002:00004e04       ??_C@_06MGJH@hmodel?$AA@   3009be04     cg_players.obj
 0002:00004e0c       ??_C@_0L@CKFL@g_blueteam?$AA@ 3009be0c     cg_players.obj
 0002:00004e1c       ??_C@_09NMHP@g_redteam?$AA@ 3009be1c     cg_players.obj
 0002:00004e28       ??_C@_02EGDA@tl?$AA@       3009be28     cg_players.obj
 0002:00004e2c       ??_C@_02LLPI@tt?$AA@       3009be2c     cg_players.obj
 0002:00004e30       ??_C@_01PEAM@t?$AA@        3009be30     cg_players.obj
 0002:00004e34       ??_C@_01JME@l?$AA@         3009be34     cg_players.obj
 0002:00004e38       ??_C@_01LLF@w?$AA@         3009be38     cg_players.obj
 0002:00004e3c       ??_C@_02MCDK@hc?$AA@       3009be3c     cg_players.obj
 0002:00004e40       ??_C@_05MIHE@skill?$AA@    3009be40     cg_players.obj
 0002:00004e48       ??_C@_02OKLG@c2?$AA@       3009be48     cg_players.obj
 0002:00004e4c       ??_C@_02BFAP@c1?$AA@       3009be4c     cg_players.obj
 0002:00004e50       ??_C@_0BD@FEG@sound?1player?1?$CFs?1?$CFs?$AA@ 3009be50     cg_players.obj
 0002:00004e68       ??_C@_08FOPC@tag_flag?$AA@ 3009be68     cg_players.obj
 0002:00004e74       ??_C@_0CG@CIED@DEFAULT_MODEL?5?$CI?$CFs?$CJ?5failed?5to?5reg@ 3009be74     cg_players.obj
 0002:00004ea4       ??_C@_0DF@EDLK@DEFAULT_TEAM_MODEL?5?1?5skin?5?$CI?$CFs?1?$CFs@ 3009bea4     cg_players.obj
 0002:00004ee4       ??_C@_07EIFO@Stroggs?$AA@  3009bee4     cg_players.obj
 0002:00004ef0       ??_C@_06BCHF@Pagans?$AA@   3009bef0     cg_players.obj
 0002:00004ef8       ??_C@_0DH@BFOD@CG_RegisterClientModelname?$CI?5?$CFs?0?5@ 3009bef8     cg_players.obj
 0002:00004f3c       ??_C@_03ONFK@tga?$AA@      3009bf3c     cg_players.obj
 0002:00004f40       ??_C@_04DHFN@icon?$AA@     3009bf40     cg_players.obj
 0002:00004f48       ??_C@_04OFAC@skin?$AA@     3009bf48     cg_players.obj
 0002:00004f50       ??_C@_0CC@OHOC@Failed?5to?5load?5animation?5file?5?$CFs@ 3009bf50     cg_players.obj
 0002:00004f78       ??_C@_0CL@BGHG@models?1players?1characters?1?$CFs?1ani@ 3009bf78     cg_players.obj
 0002:00004fac       ??_C@_0CA@ELJL@models?1players?1?$CFs?1animation?4cfg?$AA@ 3009bfac     cg_players.obj
 0002:00004fd4       ??_C@_0CM@JHOB@Failed?5to?5load?5skin?5file?3?5?$CFs?5?3?5?$CF@ 3009bfd4     cg_players.obj
 0002:00005008       ??_C@_03CFIF@?$CFs?1?$AA@  3009c008     cg_players.obj
 0002:0000500c       ??_C@_0DB@DIED@Failed?5to?5load?5skin?5file?3?5?$CFs?5?3?5?$CF@ 3009c00c     cg_players.obj
 0002:00005048       ??_C@_0BL@MPJF@models?1players?1?$CFs?1head?4md3?$AA@ 3009c048     cg_players.obj
 0002:00005068       ??_C@_0BP@ONKG@models?1players?1heads?1?$CFs?1?$CFs?4md3?$AA@ 3009c068     cg_players.obj
 0002:00005090       ??_C@_0CH@EPOD@models?1players?1characters?1?$CFs?1upp@ 3009c090     cg_players.obj
 0002:000050c0       ??_C@_0BM@CCGI@models?1players?1?$CFs?1upper?4md3?$AA@ 3009c0c0     cg_players.obj
 0002:000050e4       ??_C@_0CH@EJNE@models?1players?1characters?1?$CFs?1low@ 3009c0e4     cg_players.obj
 0002:00005114       ??_C@_0BM@CEFP@models?1players?1?$CFs?1lower?4md3?$AA@ 3009c114     cg_players.obj
 0002:00005138       ??_C@_0CB@GMGP@Error?5parsing?5animation?5file?3?5?$CFs@ 3009c138     cg_players.obj
 0002:00005160       ??_C@_0BK@LJDE@unknown?5token?5?8?$CFs?8?5is?5?$CFs?6?$AA@ 3009c160     cg_players.obj
 0002:00005180       ??_C@_0L@LMBK@fixedtorso?$AA@ 3009c180     cg_players.obj
 0002:00005190       ??_C@_09KJJ@fixedlegs?$AA@ 3009c190     cg_players.obj
 0002:0000519c       ??_C@_03CJDB@sex?$AA@      3009c19c     cg_players.obj
 0002:000051a0       ??_C@_0L@EPMP@headoffset?$AA@ 3009c1a0     cg_players.obj
 0002:000051b0       ??_C@_0BO@PCCE@Bad?5footsteps?5parm?5in?5?$CFs?3?5?$CFs?6?$AA@ 3009c1b0     cg_players.obj
 0002:000051d4       ??_C@_06GBBO@energy?$AA@   3009c1d4     cg_players.obj
 0002:000051dc       ??_C@_04FOOO@mech?$AA@     3009c1dc     cg_players.obj
 0002:000051e4       ??_C@_05NMDE@flesh?$AA@    3009c1e4     cg_players.obj
 0002:000051ec       ??_C@_04CDC@boot?$AA@      3009c1ec     cg_players.obj
 0002:000051f4       ??_C@_06KMLP@normal?$AA@   3009c1f4     cg_players.obj
 0002:000051fc       ??_C@_09EDIM@footsteps?$AA@ 3009c1fc     cg_players.obj
 0002:00005208       ??_C@_0BC@GFDL@File?5?$CFs?5too?5long?6?$AA@ 3009c208     cg_players.obj
 0002:00005220       ??_C@_0BN@CCLB@models?1players?1?$CFs?$CFs?1?$CFs_?$CFs?4?$CFs?$AA@ 3009c220     cg_players.obj
 0002:00005244       ??_C@_0BP@LDPA@models?1players?1?$CFs?$CFs?1?$CFs?$CFs_?$CFs?4?$CFs?$AA@ 3009c244     cg_players.obj
 0002:0000526c       ??_C@_0CA@FJKM@models?1players?1?$CFs?$CFs?1?$CFs?1?$CFs_?$CFs?4?$CFs?$AA@ 3009c26c     cg_players.obj
 0002:00005294       ??_C@_0CC@JGIM@models?1players?1?$CFs?$CFs?1?$CFs?1?$CFs?$CFs_?$CFs?4?$CF@ 3009c294     cg_players.obj
 0002:000052bc       ??_C@_06HFOO@heads?1?$AA@  3009c2bc     cg_players.obj
 0002:000052c4       ??_C@_03CMLD@red?$AA@      3009c2c4     cg_players.obj
 0002:000052c8       ??_C@_04FEG@blue?$AA@      3009c2c8     cg_players.obj
 0002:000052d0       ??_C@_0BM@MDCB@Head?5skin?5load?5failure?3?5?$CFs?6?$AA@ 3009c2d0     cg_players.obj
 0002:000052f4       ??_C@_04DNEF@head?$AA@     3009c2f4     cg_players.obj
 0002:000052fc       ??_C@_0BN@JKHH@Torso?5skin?5load?5failure?3?5?$CFs?6?$AA@ 3009c2fc     cg_players.obj
 0002:00005320       ??_C@_05FKGB@upper?$AA@    3009c320     cg_players.obj
 0002:00005328       ??_C@_0BL@EIIL@Leg?5skin?5load?5failure?3?5?$CFs?6?$AA@ 3009c328     cg_players.obj
 0002:00005348       ??_C@_05MCFF@lower?$AA@    3009c348     cg_players.obj
 0002:00005350       ??_C@_0M@HLLH@characters?1?$AA@ 3009c350     cg_players.obj
 0002:00005360       ??_C@_0CA@KGCA@models?1players?1?$CFs?$CFs?1?$CFs_?$CFs_?$CFs?4?$CFs?$AA@ 3009c360     cg_players.obj
 0002:00005388       ??_C@_0CC@GJLC@models?1players?1?$CFs?$CFs?1?$CFs?$CFs_?$CFs_?$CFs?4?$CF@ 3009c388     cg_players.obj
 0002:000053b0       ??_C@_0CN@HEAK@CG_SetDeferredClientInfo?3?5no?5val@ 3009c3b0     cg_players.obj
 0002:000053e8       ??_C@_08JGJE@tag_head?$AA@ 3009c3e8     cg_players.obj
 0002:000053f4       ??_C@_09ECJI@tag_torso?$AA@ 3009c3f4     cg_players.obj
 0002:00005400       ??_C@_0BP@MOFG@Bad?5clientNum?5on?5player?5entity?$AA@ 3009c400     cg_players.obj
 0002:00005428       ??_C@_0BF@OFAO@Clamp?5lf?9?$DOframeTime?6?$AA@ 3009c428     cg_players.obj
 0002:00005444       ??_C@_09FILE@Anim?3?5?$CFi?6?$AA@ 3009c444     cg_players.obj
 0002:00005450       ??_C@_0BJ@MCPI@Bad?5animation?5number?3?5?$CFi?$AA@ 3009c450     cg_players.obj
 0002:00005470       __real@4@3ffacccccd0000000000 3009c470     cg_players.obj
 0002:00005474       __real@4@c007b400000000000000 3009c474     cg_players.obj
 0002:00005478       ??_C@_0BK@HHHI@Bad?5player?5movement?5angle?$AA@ 3009c478     cg_players.obj
 0002:00005498       __real@4@4005b400000000000000 3009c498     cg_players.obj
 0002:0000549c       __real@4@40068000000000000000 3009c49c     cg_players.obj
 0002:000054a0       ??_C@_0BN@PDIA@?$CFi?5ResetPlayerEntity?5yaw?$DN?$CFi?6?$AA@ 3009c4a0     cg_players.obj
 0002:000054c8       __real@8@4006ff00000000000000 3009c4c8     cg_playerstate.obj
 0002:000054d8       __real@8@4004a000000000000000 3009c4d8     cg_playerstate.obj
 0002:000054e4       ??_C@_0CC@OOLL@WARNING?3?5changed?5predicted?5event@ 3009c4e4     cg_playerstate.obj
 0002:0000550c       ??_C@_0BH@BBDG@WARNING?3?5double?5event?6?$AA@ 3009c50c     cg_predict.obj
 0002:00005528       ??_C@_0BI@EDBE@WARNING?3?5dropped?5event?6?$AA@ 3009c528     cg_predict.obj
 0002:00005544       ??_C@_0L@PNJD@not?5moved?6?$AA@ 3009c544     cg_predict.obj
 0002:00005554       ??_C@_0L@KNMH@?$FL?$CFi?5?3?5?$CFi?$FN?5?$AA@ 3009c554     cg_predict.obj
 0002:00005564       ??_C@_0BN@HHO@Double?5prediction?5decay?3?5?$CFf?6?$AA@ 3009c564     cg_predict.obj
 0002:00005588       ??_C@_0BF@EJKK@Prediction?5miss?3?5?$CFf?6?$AA@ 3009c588     cg_predict.obj
 0002:000055a4       ??_C@_0BC@GMJM@prediction?5error?6?$AA@ 3009c5a4     cg_predict.obj
 0002:000055bc       ??_C@_0BE@LGAC@PredictionTeleport?6?$AA@ 3009c5bc     cg_predict.obj
 0002:000055d4       ??_C@_02IACN@33?$AA@       3009c5d4     cg_predict.obj
 0002:000055d8       ??_C@_0CE@GAJH@exceeded?5PACKET_BACKUP?5on?5comman@ 3009c5d8     cg_predict.obj
 0002:00005604       ??_C@_0BE@LFKI@Blue?5leads?5?$CFi?5to?5?$CFi?$AA@ 3009c604     cg_scoreboard.obj
 0002:0000561c       ??_C@_0BD@JNHP@Red?5leads?5?$CFi?5to?5?$CFi?$AA@ 3009c61c     cg_scoreboard.obj
 0002:00005634       ??_C@_0BF@JNNA@Teams?5are?5tied?5at?5?$CFi?$AA@ 3009c634     cg_scoreboard.obj
 0002:00005650       ??_C@_0BB@NFNC@?$CFs?5place?5with?5?$CFi?$AA@ 3009c650     cg_scoreboard.obj
 0002:00005664       ??_C@_0O@NJOP@Fragged?5by?5?$CFs?$AA@ 3009c664     cg_scoreboard.obj
 0002:00005674       ??_C@_05HKPI@READY?$AA@    3009c674     cg_scoreboard.obj
 0002:0000567c       ??_C@_0P@BDKN@?$CF5i?5?$CF4i?5?$CF4i?5?$CFs?$AA@ 3009c67c     cg_scoreboard.obj
 0002:00005690       ??_C@_0BC@BLFH@?5SPECT?5?$CF3i?5?$CF4i?5?$CFs?$AA@ 3009c690     cg_scoreboard.obj
 0002:000056a8       ??_C@_0BC@PMKJ@?5connecting?5?5?5?5?$CFs?$AA@ 3009c6a8     cg_scoreboard.obj
 0002:000056c0       ??_C@_05CJED@?$CFi?1?$CFi?$AA@ 3009c6c0     cg_scoreboard.obj
 0002:000056c8       ??_C@_0BH@EOKJ@Bad?5score?9?$DOclient?3?5?$CFi?6?$AA@ 3009c6c8     cg_scoreboard.obj
 0002:000056e4       ??_C@_09OLDB@Blue?5Team?$AA@ 3009c6e4     cg_scoreboard.obj
 0002:000056f0       ??_C@_08PHPI@Red?5Team?$AA@ 3009c6f0     cg_scoreboard.obj
 0002:000056fc       ??_C@_0L@PJCP@Scoreboard?$AA@ 3009c6fc     cg_scoreboard.obj
 0002:0000576c       ??_C@_0BC@MPEC@followflagcarrier?$AA@ 3009c76c     cg_servercmds.obj
 0002:00005784       ??_C@_0L@MJBL@returnflag?$AA@ 3009c784     cg_servercmds.obj
 0002:00005794       ??_C@_08NIBB@followme?$AA@ 3009c794     cg_servercmds.obj
 0002:000057a0       ??_C@_04NMKL@camp?$AA@     3009c7a0     cg_servercmds.obj
 0002:000057a8       ??_C@_06PFHA@patrol?$AA@   3009c7a8     cg_servercmds.obj
 0002:000057b0       ??_C@_0L@OLP@defendflag?$AA@ 3009c7b0     cg_servercmds.obj
 0002:000057c0       ??_C@_06LLPL@defend?$AA@   3009c7c0     cg_servercmds.obj
 0002:000057c8       ??_C@_07IKFP@offense?$AA@  3009c7c8     cg_servercmds.obj
 0002:000057d4       ??_C@_07NLAE@getflag?$AA@  3009c7d4     cg_servercmds.obj
 0002:000057e0       ??_C@_0L@IABJ@g_blueTeam?$AA@ 3009c7e0     cg_servercmds.obj
 0002:000057f0       ??_C@_09HGDN@g_redTeam?$AA@ 3009c7f0     cg_servercmds.obj
 0002:000057fc       ??_C@_0M@HBDC@maps?1?$CFs?4bsp?$AA@ 3009c7fc     cg_servercmds.obj
 0002:0000580c       ??_C@_0O@KKJL@sv_maxclients?$AA@ 3009c80c     cg_servercmds.obj
 0002:0000581c       ??_C@_09NNDG@teamflags?$AA@ 3009c81c     cg_servercmds.obj
 0002:00005828       ??_C@_07NJLK@dmflags?$AA@  3009c828     cg_servercmds.obj
 0002:00005834       ??_C@_0L@IEJM@g_gametype?$AA@ 3009c834     cg_servercmds.obj
 0002:00005844       ??_C@_01KFMA@?$EA?$AA@     3009c844     cg_servercmds.obj
 0002:00005848       ??_C@_01PKAG@?3?$AA@       3009c848     cg_servercmds.obj
 0002:0000584c       ??_C@_01KPOD@?$DN?$AA@     3009c84c     cg_servercmds.obj
 0002:00005850       ??_C@_01KCD@?$HN?$AA@      3009c850     cg_servercmds.obj
 0002:00005854       ??_C@_0CO@HDJH@?$FO1expected?5?$HL?5found?5?$CFs?5in?5voice?5c@ 3009c854     cg_servercmds.obj
 0002:0000588c       ??_C@_01PFFB@?$HL?$AA@     3009c88c     cg_servercmds.obj
 0002:00005890       ??_C@_0DE@NPOC@?$FO1expected?5gender?5not?5found?5in?5v@ 3009c890     cg_servercmds.obj
 0002:000058d0       ??_C@_06KMLI@neuter?$AA@   3009c8d0     cg_servercmds.obj
 0002:000058d8       ??_C@_04JGMG@male?$AA@     3009c8d8     cg_servercmds.obj
 0002:000058e0       ??_C@_06BKEF@female?$AA@   3009c8e0     cg_servercmds.obj
 0002:000058e8       ??_C@_0DJ@OLAB@?$FO1voice?5chat?5file?5too?5large?3?5?$CFs?5@ 3009c8e8     cg_servercmds.obj
 0002:0000592c       ??_C@_0CB@OMBN@?$FO1voice?5chat?5file?5not?5found?3?5?$CFs?6@ 3009c92c     cg_servercmds.obj
 0002:00005954       ??_C@_0BN@OHBO@voice?5chat?5memory?5size?5?$DN?5?$CFd?6?$AA@ 3009c954     cg_servercmds.obj
 0002:00005978       ??_C@_0BE@EPBG@scripts?1male5?4voice?$AA@ 3009c978     cg_servercmds.obj
 0002:00005990       ??_C@_0BE@GBID@scripts?1male4?4voice?$AA@ 3009c990     cg_servercmds.obj
 0002:000059a8       ??_C@_0BE@KIGL@scripts?1male3?4voice?$AA@ 3009c9a8     cg_servercmds.obj
 0002:000059c0       ??_C@_0BE@IGPO@scripts?1male2?4voice?$AA@ 3009c9c0     cg_servercmds.obj
 0002:000059d8       ??_C@_0BE@PFEA@scripts?1male1?4voice?$AA@ 3009c9d8     cg_servercmds.obj
 0002:000059f0       ??_C@_0BG@BOEO@scripts?1female3?4voice?$AA@ 3009c9f0     cg_servercmds.obj
 0002:00005a0c       ??_C@_0BG@DANL@scripts?1female2?4voice?$AA@ 3009ca0c     cg_servercmds.obj
 0002:00005a28       ??_C@_0BG@EDGF@scripts?1female1?4voice?$AA@ 3009ca28     cg_servercmds.obj
 0002:00005a44       ??_C@_0O@GPFC@scripts?1?$CFs?4vc?$AA@ 3009ca44     cg_servercmds.obj
 0002:00005a54       ??_C@_05LELA@?$CFs?1?$CFs?$AA@ 3009ca54     cg_servercmds.obj
 0002:00005a5c       ??_C@_0CB@PEKB@Unknown?5client?5game?5command?3?5?$CFs?6@ 3009ca5c     cg_servercmds.obj
 0002:00005a84       ??_C@_0BA@OGON@clientLevelShot?$AA@ 3009ca84     cg_servercmds.obj
 0002:00005a98       ??_C@_0M@BAF@remapShader?$AA@ 3009ca98     cg_servercmds.obj
 0002:00005aa8       ??_C@_0M@PKCG@map_restart?$AA@ 3009caa8     cg_servercmds.obj
 0002:00005ab8       ??_C@_05DLPD@tinfo?$AA@    3009cab8     cg_servercmds.obj
 0002:00005ac0       ??_C@_06CLLB@scores?$AA@   3009cac0     cg_servercmds.obj
 0002:00005ac8       ??_C@_06CPFL@vtchat?$AA@   3009cac8     cg_servercmds.obj
 0002:00005ad0       ??_C@_05JENO@vchat?$AA@    3009cad0     cg_servercmds.obj
 0002:00005ad8       ??_C@_05NEJE@tchat?$AA@    3009cad8     cg_servercmds.obj
 0002:00005ae0       ??_C@_03HHKO@?$CFs?6?$AA@  3009cae0     cg_servercmds.obj
 0002:00005ae4       ??_C@_04FLKK@chat?$AA@     3009cae4     cg_servercmds.obj
 0002:00005aec       ??_C@_05KCGF@print?$AA@    3009caec     cg_servercmds.obj
 0002:00005af4       ??_C@_02OFOB@cs?$AA@       3009caf4     cg_servercmds.obj
 0002:00005af8       ??_C@_02BKFI@cp?$AA@       3009caf8     cg_servercmds.obj
 0002:00005afc       ??_C@_06GEGH@FIGHT?$CB?$AA@ 3009cafc     cg_servercmds.obj
 0002:00005b04       ??_C@_0P@IGKC@CG_MapRestart?6?$AA@ 3009cb04     cg_servercmds.obj
 0002:00005b18       ??_C@_0DI@CBJH@CG_ProcessSnapshots?3?5cg?4nextSnap@ 3009cb18     cg_snapshot.obj
 0002:00005b5c       ??_C@_0CF@EMJA@CG_ProcessSnapshots?3?5cg?4snap?5?$DN?$DN?5@ 3009cb5c     cg_snapshot.obj
 0002:00005b88       ??_C@_0DA@DBCO@CG_ProcessSnapshots?3?5Server?5time@ 3009cb88     cg_snapshot.obj
 0002:00005bc4       ??_C@_0CO@GEJI@CG_ProcessSnapshots?3?5n?5?$DM?5cg?4late@ 3009cbc4     cg_snapshot.obj
 0002:00005bfc       ??_C@_0CI@MEOD@CG_TransitionSnapshot?3?5NULL?5cg?4n@ 3009cbfc     cg_snapshot.obj
 0002:00005c2c       ??_C@_0CE@LMCK@CG_TransitionSnapshot?3?5NULL?5cg?4s@ 3009cc2c     cg_snapshot.obj
 0002:00005c58       ??_C@_0DI@GFHN@WARNING?3?5CG_ReadNextSnapshot?3?5wa@ 3009cc58     cg_snapshot.obj
 0002:00005c9c       ??_C@_0BG@MBEM@Can?8t?5register?5model?6?$AA@ 3009cc9c     cg_view.obj
 0002:00005cb8       ??_C@_09KDBC@frame?5?$CFi?6?$AA@ 3009ccb8     cg_view.obj
 0002:00005cc4       ??_C@_08CDMB@skin?5?$CFi?6?$AA@ 3009ccc4     cg_view.obj
 0002:00005cd0       ??_C@_0BD@BFGA@cg?4clientFrame?3?$CFi?6?$AA@ 3009ccd0     cg_view.obj
 0002:00005ce8       ??_C@_02JBAA@?$CFf?$AA@    3009cce8     cg_view.obj
 0002:00005cec       __real@4@c0028000000000000000 3009ccec     cg_view.obj
 0002:00005cf0       ??_C@_02HPJE@30?$AA@       3009ccf0     cg_view.obj
 0002:00005cf8       __real@8@c004e52ee0681e793000 3009ccf8     cg_view.obj
 0002:00005d08       __real@8@40048000000000000000 3009cd08     cg_view.obj
 0002:00005d14       __real@4@40088000000000000000 3009cd14     cg_view.obj
 0002:00005d18       __real@4@4007e100000000000000 3009cd18     cg_view.obj
 0002:00005d1c       __real@4@40069600000000000000 3009cd1c     cg_view.obj
 0002:00005d20       __real@4@4001c000000000000000 3009cd20     cg_view.obj
 0002:00005d24       __real@4@4007c800000000000000 3009cd24     cg_view.obj
 0002:00005d28       __real@8@40059600000000000000 3009cd28     cg_view.obj
 0002:00005d34       __real@4@4006a000000000000000 3009cd34     cg_view.obj
 0002:00005d38       __real@8@3ffec000000000000000 3009cd38     cg_weapons.obj
 0002:00005d44       __real@4@c001c000000000000000 3009cd44     cg_weapons.obj
 0002:00005d48       __real@4@4003d000000000000000 3009cd48     cg_weapons.obj
 0002:00005d4c       ??_C@_0BI@ONPH@models?1weaphits?1bfg?4md3?$AA@ 3009cd4c     cg_weapons.obj
 0002:00005d68       ??_C@_0N@EBOG@bfgExplosion?$AA@ 3009cd68     cg_weapons.obj
 0002:00005d78       ??_C@_0BP@NFJJ@sound?1weapons?1bfg?1bfg_fire?4wav?$AA@ 3009cd78     cg_weapons.obj
 0002:00005da0       ??_C@_0BO@HMHF@sound?1weapons?1bfg?1bfg_hum?4wav?$AA@ 3009cda0     cg_weapons.obj
 0002:00005dc4       ??_C@_08DAFP@railCore?$AA@ 3009cdc4     cg_weapons.obj
 0002:00005dd0       ??_C@_0O@BKJO@railExplosion?$AA@ 3009cdd0     cg_weapons.obj
 0002:00005de0       ??_C@_0CB@HGGM@sound?1weapons?1railgun?1rg_hum?4wav@ 3009cde0     cg_weapons.obj
 0002:00005e08       ??_C@_08MPEO@railDisc?$AA@ 3009ce08     cg_weapons.obj
 0002:00005e14       ??_C@_0BA@NFMO@plasmaExplosion?$AA@ 3009ce14     cg_weapons.obj
 0002:00005e28       ??_C@_0CC@JIFL@sound?1weapons?1plasma?1hyprbf1a?4wa@ 3009ce28     cg_weapons.obj
 0002:00005e50       ??_C@_0CA@NOMN@sound?1weapons?1plasma?1lasfly?4wav?$AA@ 3009ce50     cg_weapons.obj
 0002:00005e78       ??_C@_0BB@OGAO@grenadeExplosion?$AA@ 3009ce78     cg_weapons.obj
 0002:00005e8c       ??_C@_0CD@LLBD@sound?1weapons?1grenade?1grenlf1a?4w@ 3009ce8c     cg_weapons.obj
 0002:00005eb8       ??_C@_0BJ@OLCP@models?1ammo?1grenade1?4md3?$AA@ 3009ceb8     cg_weapons.obj
 0002:00005ed8       ??_C@_0BA@LLML@rocketExplosion?$AA@ 3009ced8     cg_weapons.obj
 0002:00005eec       ??_C@_0CC@EFJP@sound?1weapons?1rocket?1rocklf1a?4wa@ 3009ceec     cg_weapons.obj
 0002:00005f14       ??_C@_0CB@BJPM@sound?1weapons?1rocket?1rockfly?4wav@ 3009cf14     cg_weapons.obj
 0002:00005f3c       ??_C@_0CD@ILHF@sound?1weapons?1shotgun?1sshotf1b?4w@ 3009cf3c     cg_weapons.obj
 0002:00005f68       ??_C@_0BA@OKAK@bulletExplosion?$AA@ 3009cf68     cg_weapons.obj
 0002:00005f7c       ??_C@_0CG@NLKL@sound?1weapons?1machinegun?1machgf4@ 3009cf7c     cg_weapons.obj
 0002:00005fac       ??_C@_0CG@DDML@sound?1weapons?1machinegun?1machgf3@ 3009cfac     cg_weapons.obj
 0002:00005fdc       ??_C@_0CG@KGGL@sound?1weapons?1machinegun?1machgf2@ 3009cfdc     cg_weapons.obj
 0002:0000600c       ??_C@_0CG@BIIL@sound?1weapons?1machinegun?1machgf1@ 3009d00c     cg_weapons.obj
 0002:0000603c       ??_C@_0BO@CMJ@models?1ammo?1rocket?1rocket?4md3?$AA@ 3009d03c     cg_weapons.obj
 0002:00006060       ??_C@_0CE@NIOG@sound?1weapons?1lightning?1lg_hit3?4@ 3009d060     cg_weapons.obj
 0002:0000608c       ??_C@_0CE@HIMD@sound?1weapons?1lightning?1lg_hit2?4@ 3009d08c     cg_weapons.obj
 0002:000060b8       ??_C@_0CD@IMBG@sound?1weapons?1lightning?1lg_hit?4w@ 3009d0b8     cg_weapons.obj
 0002:000060e4       ??_C@_0BM@JNJK@models?1weaphits?1crackle?4md3?$AA@ 3009d0e4     cg_weapons.obj
 0002:00006108       ??_C@_0BB@EGDB@lightningBoltNew?$AA@ 3009d108     cg_weapons.obj
 0002:0000611c       ??_C@_0CE@JPGL@sound?1weapons?1lightning?1lg_fire?4@ 3009d11c     cg_weapons.obj
 0002:00006148       ??_C@_0CD@IOMP@sound?1weapons?1lightning?1lg_hum?4w@ 3009d148     cg_weapons.obj
 0002:00006174       ??_C@_0BP@PNMO@sound?1weapons?1melee?1fsthum?4wav?$AA@ 3009d174     cg_weapons.obj
 0002:0000619c       ??_C@_0CA@KDLC@sound?1weapons?1melee?1fstatck?4wav?$AA@ 3009d19c     cg_weapons.obj
 0002:000061c4       ??_C@_0BP@NNHN@sound?1weapons?1melee?1fstrun?4wav?$AA@ 3009d1c4     cg_weapons.obj
 0002:000061ec       ??_C@_0CJ@HMHN@models?1weapons2?1shotgun?1shotgun_@ 3009d1ec     cg_weapons.obj
 0002:00006220       ??_C@_09EPBB@_hand?4md3?$AA@ 3009d220     cg_weapons.obj
 0002:0000622c       ??_C@_0M@LLAK@_barrel?4md3?$AA@ 3009d22c     cg_weapons.obj
 0002:0000623c       ??_C@_0L@LKFC@_flash?4md3?$AA@ 3009d23c     cg_weapons.obj
 0002:0000624c       ??_C@_0BI@GDKJ@Couldn?8t?5find?5weapon?5?$CFi?$AA@ 3009d24c     cg_weapons.obj
 0002:00006268       __real@8@c004c800000000000000 3009d268     cg_weapons.obj
 0002:00006278       __real@8@c004a000000000000000 3009d278     cg_weapons.obj
 0002:00006288       __real@8@3ffcccccccccccccd000 3009d288     cg_weapons.obj
 0002:00006294       __real@4@4004fc00000000000000 3009d294     cg_weapons.obj
 0002:00006298       __real@8@4005a000000000000000 3009d298     cg_weapons.obj
 0002:000062a8       __real@8@4005f000000000000000 3009d2a8     cg_weapons.obj
 0002:000062b4       ??_C@_0DH@HBNE@CG_RegisterItemVisuals?3?5itemNum?5@ 3009d2b4     cg_weapons.obj
 0002:000062f8       ??_C@_09ONMF@tag_flash?$AA@ 3009d2f8     cg_weapons.obj
 0002:00006304       ??_C@_0L@BGKG@tag_barrel?$AA@ 3009d304     cg_weapons.obj
 0002:00006314       ??_C@_0L@FMME@tag_weapon?$AA@ 3009d314     cg_weapons.obj
 0002:00006324       __real@4@4009bb80000000000000 3009d324     cg_weapons.obj
 0002:00006328       __real@4@4008c000000000000000 3009d328     cg_weapons.obj
 0002:0000632c       __real@4@4002e000000000000000 3009d32c     cg_weapons.obj
 0002:00006330       __real@4@c006b400000000000000 3009d330     cg_weapons.obj
 0002:00006338       __real@8@bffcccccccccccccd000 3009d338     cg_weapons.obj
 0002:00006348       __real@8@40079600000000000000 3009d348     cg_weapons.obj
 0002:00006358       __real@8@3ff8a3d70a3d70a3d800 3009d358     cg_weapons.obj
 0002:00006364       ??_C@_0CN@IAOL@CG_FireWeapon?3?5ent?9?$DOweapon?5?$DO?$DN?5WP@ 3009d364     cg_weapons.obj
 0002:0000639c       __real@4@4008af00000000000000 3009d39c     cg_weapons.obj
 0002:000063a0       __real@4@4004c800000000000000 3009d3a0     cg_weapons.obj
 0002:000063a4       __real@4@400f8000000000000000 3009d3a4     q_math.obj
 0002:000063a8       ??_C@_0BK@OJK@Q_fabs?$CIinv_denom?$CJ?5?$CB?$DN?50?40f?$AA@ 3009d3a8     q_math.obj
 0002:000063c8       ??_C@_0CM@IBFO@c?3?2ygpip?2quake3?2cleanmod?2code?2ga@ 3009d3c8     q_math.obj
 0002:00006400       __real@8@4006b60b60b60b60b800 3009d400     q_math.obj
 0002:0000640c       __real@4@3ff98efa350000000000 3009d40c     q_math.obj
 0002:00006410       ??_C@_0BI@KJOD@ERROR?3?5?$CFs?0?5line?5?$CFd?3?5?$CFs?6?$AA@ 3009d410     q_shared.obj
 0002:0000642c       ??_C@_0BK@EEPA@WARNING?3?5?$CFs?0?5line?5?$CFd?3?5?$CFs?6?$AA@ 3009d42c     q_shared.obj
 0002:0000644c       ??_C@_0BF@JENF@MatchToken?3?5?$CFs?5?$CB?$DN?5?$CFs?$AA@ 3009d44c     q_shared.obj
 0002:00006468       ??_C@_01KMMP@?$CJ?$AA@     3009d468     q_shared.obj
 0002:0000646c       ??_C@_01GFI@?$CI?$AA@      3009d46c     q_shared.obj
 0002:00006470       ??_C@_0BJ@GDCK@Q_strncpyz?3?5destsize?5?$DM?51?$AA@ 3009d470     q_shared.obj
 0002:00006490       ??_C@_0BF@OBLI@Q_strncpyz?3?5NULL?5src?$AA@ 3009d490     q_shared.obj
 0002:000064ac       ??_C@_0BG@BANA@Q_strncpyz?3?5NULL?5dest?$AA@ 3009d4ac     q_shared.obj
 0002:000064c8       ??_C@_0BN@PKJG@Q_strcat?3?5already?5overflowed?$AA@ 3009d4c8     q_shared.obj
 0002:000064ec       ??_C@_0CD@KCEE@Com_sprintf?3?5overflow?5of?5?$CFi?5in?5?$CF@ 3009d4ec     q_shared.obj
 0002:00006518       ??_C@_0CC@NDC@Com_sprintf?3?5overflowed?5bigbuffe@ 3009d518     q_shared.obj
 0002:00006540       ??_C@_0CG@FAFH@Info_ValueForKey?3?5oversize?5infos@ 3009d540     q_shared.obj
 0002:00006570       ??_C@_0CE@CNEE@Info_RemoveKey?3?5oversize?5infostr@ 3009d570     q_shared.obj
 0002:0000659c       ??_C@_0CI@EHFL@Info_RemoveKey_Big?3?5oversize?5inf@ 3009d59c     q_shared.obj
 0002:000065cc       ??_C@_0BN@DPCF@Info?5string?5length?5exceeded?6?$AA@ 3009d5cc     q_shared.obj
 0002:000065f0       ??_C@_06GNBE@?2?$CFs?2?$CFs?$AA@ 3009d5f0     q_shared.obj
 0002:000065f8       ??_C@_0CD@NLGB@Can?8t?5use?5keys?5or?5values?5with?5a?5@ 3009d5f8     q_shared.obj
 0002:00006624       ??_C@_0CL@GPCB@Can?8t?5use?5keys?5or?5values?5with?5a?5@ 3009d624     q_shared.obj
 0002:00006658       ??_C@_0CD@MJE@Can?8t?5use?5keys?5or?5values?5with?5a?5@ 3009d658     q_shared.obj
 0002:00006684       ??_C@_0CJ@GBHP@Info_SetValueForKey?3?5oversize?5in@ 3009d684     q_shared.obj
 0002:000066b8       ??_C@_0CB@GPOG@BIG?5Info?5string?5length?5exceeded?6@ 3009d6b8     q_shared.obj
 0002:000066e0       ??_C@_0L@LGOP@fadeAmount?$AA@ 3009d6e0     ui_shared.obj
 0002:000066f0       ??_C@_09NJPJ@fadeCycle?$AA@ 3009d6f0     ui_shared.obj
 0002:000066fc       ??_C@_09CHPO@fadeClamp?$AA@ 3009d6fc     ui_shared.obj
 0002:00006708       ??_C@_05MAFJ@popup?$AA@    3009d708     ui_shared.obj
 0002:00006710       ??_C@_07ECDN@itemDef?$AA@  3009d710     ui_shared.obj
 0002:0000671c       ??_C@_09HCCM@soundLoop?$AA@ 3009d71c     ui_shared.obj
 0002:00006728       ??_C@_0BB@MOPP@outOfBoundsClick?$AA@ 3009d728     ui_shared.obj
 0002:0000673c       ??_C@_0N@FBO@disablecolor?$AA@ 3009d73c     ui_shared.obj
 0002:0000674c       ??_C@_0L@DGCP@focuscolor?$AA@ 3009d74c     ui_shared.obj
 0002:0000675c       ??_C@_0L@BFH@borderSize?$AA@ 3009d75c     ui_shared.obj
 0002:0000676c       ??_C@_05FJPJ@onESC?$AA@    3009d76c     ui_shared.obj
 0002:00006774       ??_C@_07FOJA@onClose?$AA@  3009d774     ui_shared.obj
 0002:00006780       ??_C@_06FIME@onOpen?$AA@   3009d780     ui_shared.obj
 0002:00006788       ??_C@_0L@EMDO@fullscreen?$AA@ 3009d788     ui_shared.obj
 0002:00006798       ??_C@_04IBNA@font?$AA@     3009d798     ui_shared.obj
 0002:000067a0       ??_C@_0M@DMAO@doubleclick?$AA@ 3009d7a0     ui_shared.obj
 0002:000067b0       ??_C@_09OMPE@cinematic?$AA@ 3009d7b0     ui_shared.obj
 0002:000067bc       ??_C@_08JGBG@hideCvar?$AA@ 3009d7bc     ui_shared.obj
 0002:000067c8       ??_C@_08PCJD@showCvar?$AA@ 3009d7c8     ui_shared.obj
 0002:000067d4       ??_C@_0M@CNDG@disableCvar?$AA@ 3009d7d4     ui_shared.obj
 0002:000067e4       ??_C@_08DKMB@cvarTest?$AA@ 3009d7e4     ui_shared.obj
 0002:000067f0       ??_C@_0L@MJLB@enableCvar?$AA@ 3009d7f0     ui_shared.obj
 0002:00006800       ??_C@_0O@NNMB@ownerdrawFlag?$AA@ 3009d800     ui_shared.obj
 0002:00006810       ??_C@_0O@CDOD@addColorRange?$AA@ 3009d810     ui_shared.obj
 0002:00006820       ??_C@_0O@ELIM@cvarFloatList?$AA@ 3009d820     ui_shared.obj
 0002:00006830       ??_C@_0M@IIKB@cvarStrList?$AA@ 3009d830     ui_shared.obj
 0002:00006840       ??_C@_09KJMH@cvarFloat?$AA@ 3009d840     ui_shared.obj
 0002:0000684c       ??_C@_0L@JDLB@focusSound?$AA@ 3009d84c     ui_shared.obj
 0002:0000685c       ??_C@_0O@FKFJ@maxPaintChars?$AA@ 3009d85c     ui_shared.obj
 0002:0000686c       ??_C@_08GEDH@maxChars?$AA@ 3009d86c     ui_shared.obj
 0002:00006878       ??_C@_04PJHA@cvar?$AA@     3009d878     ui_shared.obj
 0002:00006880       ??_C@_07LCAN@special?$AA@  3009d880     ui_shared.obj
 0002:0000688c       ??_C@_06GIFC@action?$AA@   3009d88c     ui_shared.obj
 0002:00006894       ??_C@_0O@NBIL@mouseExitText?$AA@ 3009d894     ui_shared.obj
 0002:000068a4       ??_C@_0P@KHGM@mouseEnterText?$AA@ 3009d8a4     ui_shared.obj
 0002:000068b8       ??_C@_09BADD@mouseExit?$AA@ 3009d8b8     ui_shared.obj
 0002:000068c4       ??_C@_0L@OCDD@mouseEnter?$AA@ 3009d8c4     ui_shared.obj
 0002:000068d4       ??_C@_0L@FHLI@leaveFocus?$AA@ 3009d8d4     ui_shared.obj
 0002:000068e4       ??_C@_07OIME@onFocus?$AA@  3009d8e4     ui_shared.obj
 0002:000068f0       ??_C@_0L@OBMO@background?$AA@ 3009d8f0     ui_shared.obj
 0002:00006900       ??_C@_0N@DIIC@outlinecolor?$AA@ 3009d900     ui_shared.obj
 0002:00006910       ??_C@_0M@JJHA@bordercolor?$AA@ 3009d910     ui_shared.obj
 0002:00006920       ??_C@_09EBJE@forecolor?$AA@ 3009d920     ui_shared.obj
 0002:0000692c       ??_C@_09KOCJ@backcolor?$AA@ 3009d92c     ui_shared.obj
 0002:00006938       ??_C@_09DINF@textstyle?$AA@ 3009d938     ui_shared.obj
 0002:00006944       ??_C@_09CGJF@textscale?$AA@ 3009d944     ui_shared.obj
 0002:00006950       ??_C@_0L@GCHO@textaligny?$AA@ 3009d950     ui_shared.obj
 0002:00006960       ??_C@_0L@MIOJ@textalignx?$AA@ 3009d960     ui_shared.obj
 0002:00006970       ??_C@_09BLL@textalign?$AA@ 3009d970     ui_shared.obj
 0002:0000697c       ??_C@_05KLFA@align?$AA@    3009d97c     ui_shared.obj
 0002:00006984       ??_C@_09NHP@ownerdraw?$AA@ 3009d984     ui_shared.obj
 0002:00006990       ??_C@_07IHCG@visible?$AA@  3009d990     ui_shared.obj
 0002:0000699c       ??_C@_0L@KLBF@bordersize?$AA@ 3009d99c     ui_shared.obj
 0002:000069ac       ??_C@_06MNIN@border?$AA@   3009d9ac     ui_shared.obj
 0002:000069b4       ??_C@_07FLIA@columns?$AA@  3009d9b4     ui_shared.obj
 0002:000069c0       ??_C@_0M@FEMJ@elementtype?$AA@ 3009d9c0     ui_shared.obj
 0002:000069d0       ??_C@_06HFPC@feeder?$AA@   3009d9d0     ui_shared.obj
 0002:000069d8       ??_C@_0O@CIAP@elementheight?$AA@ 3009d9d8     ui_shared.obj
 0002:000069e8       ??_C@_0N@ELB@elementwidth?$AA@ 3009d9e8     ui_shared.obj
 0002:000069f8       ??_C@_04PIKN@type?$AA@     3009d9f8     ui_shared.obj
 0002:00006a00       ??_C@_0BB@JAFN@horizontalscroll?$AA@ 3009da00     ui_shared.obj
 0002:00006a14       ??_C@_0M@GJFH@autowrapped?$AA@ 3009da14     ui_shared.obj
 0002:00006a24       ??_C@_07HEIC@wrapped?$AA@  3009da24     ui_shared.obj
 0002:00006a30       ??_C@_0O@IJLD@notselectable?$AA@ 3009da30     ui_shared.obj
 0002:00006a40       ??_C@_0L@PHND@decoration?$AA@ 3009da40     ui_shared.obj
 0002:00006a50       ??_C@_05JCDO@style?$AA@    3009da50     ui_shared.obj
 0002:00006a58       ??_C@_04IMHF@rect?$AA@     3009da58     ui_shared.obj
 0002:00006a60       ??_C@_0M@PNFM@model_angle?$AA@ 3009da60     ui_shared.obj
 0002:00006a70       ??_C@_0P@HBDA@model_rotation?$AA@ 3009da70     ui_shared.obj
 0002:00006a84       ??_C@_0L@MKGE@model_fovy?$AA@ 3009da84     ui_shared.obj
 0002:00006a94       ??_C@_0L@GAPD@model_fovx?$AA@ 3009da94     ui_shared.obj
 0002:00006aa4       ??_C@_0N@CGDA@model_origin?$AA@ 3009daa4     ui_shared.obj
 0002:00006ab4       ??_C@_0N@LOPC@asset_shader?$AA@ 3009dab4     ui_shared.obj
 0002:00006ac4       ??_C@_0M@EHKI@asset_model?$AA@ 3009dac4     ui_shared.obj
 0002:00006ad4       ??_C@_05GCOD@group?$AA@    3009dad4     ui_shared.obj
 0002:00006adc       ??_C@_04LHJL@text?$AA@     3009dadc     ui_shared.obj
 0002:00006ae4       ??_C@_04OPJK@name?$AA@     3009dae4     ui_shared.obj
 0002:00006aec       ??_C@_0M@HPFF@cl_freelook?$AA@ 3009daec     ui_shared.obj
 0002:00006afc       ??_C@_08MAF@m_filter?$AA@  3009dafc     ui_shared.obj
 0002:00006b08       ??_C@_0O@LFMM@joy_threshold?$AA@ 3009db08     ui_shared.obj
 0002:00006b18       ??_C@_0M@JGHL@in_joystick?$AA@ 3009db18     ui_shared.obj
 0002:00006b28       ??_C@_0M@CKB@sensitivity?$AA@ 3009db28     ui_shared.obj
 0002:00006b38       ??_C@_07FHKJ@m_pitch?$AA@  3009db38     ui_shared.obj
 0002:00006b44       ??_C@_06HIKK@cl_run?$AA@   3009db44     ui_shared.obj
 0002:00006b50       ??_C@_0N@BFGA@messagemode4?$AA@ 3009db50     ui_shared.obj
 0002:00006b60       ??_C@_0N@EAIF@messagemode3?$AA@ 3009db60     ui_shared.obj
 0002:00006b70       ??_C@_0N@OKBC@messagemode2?$AA@ 3009db70     ui_shared.obj
 0002:00006b80       ??_C@_0M@KMFF@messagemode?$AA@ 3009db80     ui_shared.obj
 0002:00006b90       ??_C@_0L@HNGG@scoresDown?$AA@ 3009db90     ui_shared.obj
 0002:00006ba0       ??_C@_08KKN@scoresUp?$AA@  3009dba0     ui_shared.obj
 0002:00006bac       ??_C@_0O@PANO@tauntGauntlet?$AA@ 3009dbac     ui_shared.obj
 0002:00006bbc       ??_C@_0BB@KEAB@tauntDeathInsult?$AA@ 3009dbbc     ui_shared.obj
 0002:00006bd0       ??_C@_0L@OHDB@tauntTaunt?$AA@ 3009dbd0     ui_shared.obj
 0002:00006be0       ??_C@_0M@OCOL@tauntPraise?$AA@ 3009dbe0     ui_shared.obj
 0002:00006bf0       ??_C@_0BA@CBNM@tauntKillInsult?$AA@ 3009dbf0     ui_shared.obj
 0002:00006c04       ??_C@_0M@MJPP@taskSuicide?$AA@ 3009dc04     ui_shared.obj
 0002:00006c14       ??_C@_0M@LMNO@taskOwnFlag?$AA@ 3009dc14     ui_shared.obj
 0002:00006c24       ??_C@_0L@GOC@taskEscort?$AA@ 3009dc24     ui_shared.obj
 0002:00006c34       ??_C@_0N@IBEF@taskRetrieve?$AA@ 3009dc34     ui_shared.obj
 0002:00006c44       ??_C@_0L@HBLJ@taskFollow?$AA@ 3009dc44     ui_shared.obj
 0002:00006c54       ??_C@_08FHNA@taskCamp?$AA@ 3009dc54     ui_shared.obj
 0002:00006c60       ??_C@_0L@LHOG@taskPatrol?$AA@ 3009dc60     ui_shared.obj
 0002:00006c70       ??_C@_0M@LIOO@taskDefense?$AA@ 3009dc70     ui_shared.obj
 0002:00006c80       ??_C@_0M@BBN@taskOffense?$AA@ 3009dc80     ui_shared.obj
 0002:00006c90       ??_C@_09NAAF@denyOrder?$AA@ 3009dc90     ui_shared.obj
 0002:00006c9c       ??_C@_0N@KCI@confirmOrder?$AA@ 3009dc9c     ui_shared.obj
 0002:00006cac       ??_C@_09CGNC@nextOrder?$AA@ 3009dcac     ui_shared.obj
 0002:00006cb8       ??_C@_0P@NPAA@nextTeamMember?$AA@ 3009dcb8     ui_shared.obj
 0002:00006ccc       ??_C@_0P@HAG@prevTeamMember?$AA@ 3009dccc     ui_shared.obj
 0002:00006ce0       ??_C@_08EHKG@?$CLbutton4?$AA@ 3009dce0     ui_shared.obj
 0002:00006cec       ??_C@_08BCED@?$CLbutton3?$AA@ 3009dcec     ui_shared.obj
 0002:00006cf8       ??_C@_07KANK@?$CLattack?$AA@ 3009dcf8     ui_shared.obj
 0002:00006d04       ??_C@_09IBOJ@weapon?513?$AA@ 3009dd04     ui_shared.obj
 0002:00006d10       ??_C@_09CLHO@weapon?512?$AA@ 3009dd10     ui_shared.obj
 0002:00006d1c       ??_C@_09NEMH@weapon?511?$AA@ 3009dd1c     ui_shared.obj
 0002:00006d28       ??_C@_09HOFA@weapon?510?$AA@ 3009dd28     ui_shared.obj
 0002:00006d34       ??_C@_08JEPH@weapon?59?$AA@ 3009dd34     ui_shared.obj
 0002:00006d40       ??_C@_08DOGA@weapon?58?$AA@ 3009dd40     ui_shared.obj
 0002:00006d4c       ??_C@_08DPDN@weapon?57?$AA@ 3009dd4c     ui_shared.obj
 0002:00006d58       ??_C@_08JFKK@weapon?56?$AA@ 3009dd58     ui_shared.obj
 0002:00006d64       ??_C@_08GKBD@weapon?55?$AA@ 3009dd64     ui_shared.obj
 0002:00006d70       ??_C@_08MAIE@weapon?54?$AA@ 3009dd70     ui_shared.obj
 0002:00006d7c       ??_C@_08JFGB@weapon?53?$AA@ 3009dd7c     ui_shared.obj
 0002:00006d88       ??_C@_08DPPG@weapon?52?$AA@ 3009dd88     ui_shared.obj
 0002:00006d94       ??_C@_08MAEP@weapon?51?$AA@ 3009dd94     ui_shared.obj
 0002:00006da0       ??_C@_0L@EKJH@centerview?$AA@ 3009dda0     ui_shared.obj
 0002:00006db0       ??_C@_06NEOC@?$CLmlook?$AA@ 3009ddb0     ui_shared.obj
 0002:00006db8       ??_C@_09GHKO@?$CLlookdown?$AA@ 3009ddb8     ui_shared.obj
 0002:00006dc4       ??_C@_07BGBD@?$CLlookup?$AA@ 3009ddc4     ui_shared.obj
 0002:00006dd0       ??_C@_07OJLO@?$CLstrafe?$AA@ 3009ddd0     ui_shared.obj
 0002:00006ddc       ??_C@_06FOLA@?$CLright?$AA@ 3009dddc     ui_shared.obj
 0002:00006de4       ??_C@_05IFMH@?$CLleft?$AA@ 3009dde4     ui_shared.obj
 0002:00006dec       ??_C@_09IMNG@?$CLmovedown?$AA@ 3009ddec     ui_shared.obj
 0002:00006df8       ??_C@_07KFJC@?$CLmoveup?$AA@ 3009ddf8     ui_shared.obj
 0002:00006e04       ??_C@_0L@DMHD@?$CLmoveright?$AA@ 3009de04     ui_shared.obj
 0002:00006e14       ??_C@_09EGDL@?$CLmoveleft?$AA@ 3009de14     ui_shared.obj
 0002:00006e20       ??_C@_05NMMM@?$CLback?$AA@ 3009de20     ui_shared.obj
 0002:00006e28       ??_C@_08HLLP@?$CLforward?$AA@ 3009de28     ui_shared.obj
 0002:00006e34       ??_C@_06FAHP@?$CLspeed?$AA@ 3009de34     ui_shared.obj
 0002:00006e3c       ??_C@_08LINE@?$CLbutton2?$AA@ 3009de3c     ui_shared.obj
 0002:00006e48       ??_C@_05MGDL@orbit?$AA@    3009de48     ui_shared.obj
 0002:00006e50       ??_C@_0L@FLKC@playlooped?$AA@ 3009de50     ui_shared.obj
 0002:00006e60       ??_C@_04HNFE@play?$AA@     3009de60     ui_shared.obj
 0002:00006e68       ??_C@_04DBD@exec?$AA@      3009de68     ui_shared.obj
 0002:00006e70       ??_C@_07IEFL@setcvar?$AA@  3009de70     ui_shared.obj
 0002:00006e7c       ??_C@_0L@EKMP@transition?$AA@ 3009de7c     ui_shared.obj
 0002:00006e8c       ??_C@_0O@KFCI@setplayerhead?$AA@ 3009de8c     ui_shared.obj
 0002:00006e9c       ??_C@_0P@EBAD@setplayermodel?$AA@ 3009de9c     ui_shared.obj
 0002:00006eb0       ??_C@_08ENEG@setfocus?$AA@ 3009deb0     ui_shared.obj
 0002:00006ebc       ??_C@_0N@NBGB@setteamcolor?$AA@ 3009debc     ui_shared.obj
 0002:00006ecc       ??_C@_0N@FMFL@setitemcolor?$AA@ 3009decc     ui_shared.obj
 0002:00006edc       ??_C@_0O@JPBI@setbackground?$AA@ 3009dedc     ui_shared.obj
 0002:00006eec       ??_C@_08NJGD@setasset?$AA@ 3009deec     ui_shared.obj
 0002:00006ef8       ??_C@_05JMGP@close?$AA@    3009def8     ui_shared.obj
 0002:00006f00       ??_C@_0BA@BBOK@conditionalopen?$AA@ 3009df00     ui_shared.obj
 0002:00006f14       ??_C@_04KHOB@open?$AA@     3009df14     ui_shared.obj
 0002:00006f1c       ??_C@_08BLBN@setcolor?$AA@ 3009df1c     ui_shared.obj
 0002:00006f28       ??_C@_04DDN@hide?$AA@      3009df28     ui_shared.obj
 0002:00006f30       ??_C@_04DDJJ@show?$AA@     3009df30     ui_shared.obj
 0002:00006f38       ??_C@_07FOED@fadeout?$AA@  3009df38     ui_shared.obj
 0002:00006f44       ??_C@_06DKEJ@fadein?$AA@   3009df44     ui_shared.obj
 0002:00006f4c       ??_C@_0CD@OLMO@UI_Alloc?3?5Failure?4?5Out?5of?5memory@ 3009df4c     ui_shared.obj
 0002:00006f78       ??_C@_0DG@NIMK@Memory?5Pool?5is?5?$CF?41f?$CF?$CF?5full?0?5?$CFi?5b@ 3009df78     ui_shared.obj
 0002:00006fb8       __real@4@40138000000000000000 3009dfb8     ui_shared.obj
 0002:00006fbc       ??_C@_0DG@BMAK@String?5Pool?5is?5?$CF?41f?$CF?$CF?5full?0?5?$CFi?5b@ 3009dfbc     ui_shared.obj
 0002:00006ffc       __real@4@4011c000000000000000 3009dffc     ui_shared.obj
 0002:00007000       ??_C@_0BC@FMMM@?9?9?9?9?9?9?9?9?9?9?9?9?9?9?9?9?6?$AA@ 3009e000     ui_shared.obj
 0002:00007018       ??_C@_0BJ@PDFG@Memory?1String?5Pool?5Info?6?$AA@ 3009e018     ui_shared.obj
 0002:00007038       ??_C@_0BM@GDMP@?$FO3WARNING?3?5?$CFs?0?5line?5?$CFd?3?5?$CFs?6?$AA@ 3009e038     ui_shared.obj
 0002:0000705c       ??_C@_0BK@DHCJ@?$FO1ERROR?3?5?$CFs?0?5line?5?$CFd?3?5?$CFs?6?$AA@ 3009e05c     ui_shared.obj
 0002:0000707c       ??_C@_0BN@JLBP@expected?5float?5but?5found?5?$CFs?6?$AA@ 3009e07c     ui_shared.obj
 0002:000070a0       ??_C@_0BP@CPFA@expected?5integer?5but?5found?5?$CFs?6?$AA@ 3009e0a0     ui_shared.obj
 0002:000070c8       ??_C@_01FCOA@?5?$AA@       3009e0c8     ui_shared.obj
 0002:000070cc       ??_C@_04JBBA@?$CC?$CFs?$CC?$AA@ 3009e0cc     ui_shared.obj
 0002:000070d4       ??_C@_05MBGP@?$CFs?5?$DL?5?$AA@ 3009e0d4     ui_shared.obj
 0002:000070e0       __real@8@40008000000000000000 3009e0e0     ui_shared.obj
 0002:000070f0       __real@8@4005c000000000000000 3009e0f0     ui_shared.obj
 0002:000070fc       ??_C@_0BI@JGJP@slider?5handle?5key?5exit?6?$AA@ 3009e0fc     ui_shared.obj
 0002:00007118       ??_C@_0M@JDIP@screenshot?6?$AA@ 3009e118     ui_shared.obj
 0002:00007128       ??_C@_02JOHD@No?$AA@       3009e128     ui_shared.obj
 0002:0000712c       ??_C@_03PEHN@Yes?$AA@      3009e12c     ui_shared.obj
 0002:00007130       ??_C@_0M@GOEP@in_restart?6?$AA@ 3009e130     ui_shared.obj
 0002:00007140       ??_C@_03NMFM@?$DP?$DP?$DP?$AA@ 3009e140     ui_shared.obj
 0002:00007144       ??_C@_04CJAC@?5or?5?$AA@   3009e144     ui_shared.obj
 0002:0000714c       ??_C@_05FAED@FIXME?$AA@    3009e14c     ui_shared.obj
 0002:00007154       __real@4@3ffecccccd0000000000 3009e154     ui_shared.obj
 0002:00007158       __real@8@4002f000000000000000 3009e158     ui_shared.obj
 0002:00007164       ??_C@_0BO@JKJO@end?5of?5file?5inside?5menu?5item?6?$AA@ 3009e164     ui_shared.obj
 0002:00007188       ??_C@_0CE@BCLC@couldn?8t?5parse?5menu?5item?5keyword@ 3009e188     ui_shared.obj
 0002:000071b4       ??_C@_0BN@LAOO@unknown?5menu?5item?5keyword?5?$CFs?$AA@ 3009e1b4     ui_shared.obj
 0002:000071d8       ??_C@_04HBMH@main?$AA@     3009e1d8     ui_shared.obj
 0002:000071e0       ??_C@_0BP@NHLM@couldn?8t?5parse?5menu?5keyword?5?$CFs?$AA@ 3009e1e0     ui_shared.obj
 0002:00007208       ??_C@_0BI@PMHL@unknown?5menu?5keyword?5?$CFs?$AA@ 3009e208     ui_shared.obj
 0002:00007224       ??_C@_0BJ@HCBH@end?5of?5file?5inside?5menu?6?$AA@ 3009e224     ui_shared.obj
 0002:00007244       ??_C@_07LFOI@fps?3?5?$CFf?$AA@ 3009e244     ui_shared.obj
 0002:00007250       ??_C@_0P@LNLA@format?5?$CB?$DN?5NULL?$AA@ 3009e250     LIBCMTD:vsprintf.obj
 0002:00007260       ??_C@_0L@HE@vsprintf?4c?$AA@ 3009e260     LIBCMTD:vsprintf.obj
 0002:0000726c       ??_C@_0P@OOIN@string?5?$CB?$DN?5NULL?$AA@ 3009e26c     LIBCMTD:vsprintf.obj
 0002:0000727c       ??_C@_02JJJH@?6?6?$AA@     3009e27c     LIBCMTD:assert.obj
 0002:00007280       ??_C@_01BJG@?6?$AA@        3009e280     LIBCMTD:assert.obj
 0002:00007284       ??_C@_03NAME@?4?4?4?$AA@   3009e284     LIBCMTD:assert.obj
 0002:00007288       ??_C@_0CF@JPDF@Microsoft?5Visual?5C?$CL?$CL?5Runtime?5Lib@ 3009e288     LIBCMTD:assert.obj
 0002:000072b0       ??_C@_0DN@MHHJ@?$CIPress?5Retry?5to?5debug?5the?5applic@ 3009e2b0     LIBCMTD:assert.obj
 0002:000072f0       ??_C@_0HA@EJLJ@For?5information?5on?5how?5your?5prog@ 3009e2f0     LIBCMTD:assert.obj
 0002:00007360       ??_C@_0N@NOAB@Expression?3?5?$AA@ 3009e360     LIBCMTD:assert.obj
 0002:00007370       ??_C@_06JMOL@Line?3?5?$AA@ 3009e370     LIBCMTD:assert.obj
 0002:00007378       ??_C@_06FAAO@File?3?5?$AA@ 3009e378     LIBCMTD:assert.obj
 0002:00007380       ??_C@_0BH@NNCD@?$DMprogram?5name?5unknown?$DO?$AA@ 3009e380     LIBCMTD:assert.obj
 0002:00007398       ??_C@_09PIFG@Program?3?5?$AA@ 3009e398     LIBCMTD:assert.obj
 0002:000073a4       ??_C@_0BC@OIMC@Assertion?5failed?$CB?$AA@ 3009e3a4     LIBCMTD:assert.obj
 0002:000073b8       ??_C@_0BK@JEGK@IsProcessorFeaturePresent?$AA@ 3009e3b8     LIBCMTD:testfdiv.obj
 0002:000073d4       ??_C@_08OBID@KERNEL32?$AA@ 3009e3d4     LIBCMTD:testfdiv.obj
 0002:000073e0       ??_C@_05OFLO@e?$CL000?$AA@ 3009e3e0     LIBCMTD:cvt.obj
 0002:000073f8       __DEFAULT_CW_in_mem        3009e3f8     LIBCMTD:common.obj
 0002:000073fa       __pi_by_2_to_61            3009e3fa     LIBCMTD:common.obj
 0002:00007434       ??_C@_03GAFO@_yn?$AA@      3009e434     LIBCMTD:fpexcept.obj
 0002:00007438       ??_C@_03GNLD@_y1?$AA@      3009e438     LIBCMTD:fpexcept.obj
 0002:0000743c       ??_C@_03MHCE@_y0?$AA@      3009e43c     LIBCMTD:fpexcept.obj
 0002:00007440       ??_C@_05PAK@frexp?$AA@     3009e440     LIBCMTD:fpexcept.obj
 0002:00007448       ??_C@_04JKCH@fmod?$AA@     3009e448     LIBCMTD:fpexcept.obj
 0002:00007450       ??_C@_06GGHF@_hypot?$AA@   3009e450     LIBCMTD:fpexcept.obj
 0002:00007458       ??_C@_05JNMC@_cabs?$AA@    3009e458     LIBCMTD:fpexcept.obj
 0002:00007460       ??_C@_05MEKH@ldexp?$AA@    3009e460     LIBCMTD:fpexcept.obj
 0002:00007468       ??_C@_04KAOJ@modf?$AA@     3009e468     LIBCMTD:fpexcept.obj
 0002:00007470       ??_C@_04EHAJ@fabs?$AA@     3009e470     LIBCMTD:fpexcept.obj
 0002:00007478       ??_C@_05MFBN@floor?$AA@    3009e478     LIBCMTD:fpexcept.obj
 0002:00007480       ??_C@_04JJMP@ceil?$AA@     3009e480     LIBCMTD:fpexcept.obj
 0002:00007488       ??_C@_03JLPI@tan?$AA@      3009e488     LIBCMTD:fpexcept.obj
 0002:0000748c       ??_C@_03DLFL@cos?$AA@      3009e48c     LIBCMTD:fpexcept.obj
 0002:00007490       ??_C@_03JAMN@sin?$AA@      3009e490     LIBCMTD:fpexcept.obj
 0002:00007494       ??_C@_04LMBE@sqrt?$AA@     3009e494     LIBCMTD:fpexcept.obj
 0002:0000749c       ??_C@_05BFPO@atan2?$AA@    3009e49c     LIBCMTD:fpexcept.obj
 0002:000074a4       ??_C@_04EAGN@atan?$AA@     3009e4a4     LIBCMTD:fpexcept.obj
 0002:000074ac       ??_C@_04OAMO@acos?$AA@     3009e4ac     LIBCMTD:fpexcept.obj
 0002:000074b4       ??_C@_04ELFI@asin?$AA@     3009e4b4     LIBCMTD:fpexcept.obj
 0002:000074bc       ??_C@_04LFAD@tanh?$AA@     3009e4bc     LIBCMTD:fpexcept.obj
 0002:000074c4       ??_C@_04PFKD@cosh?$AA@     3009e4c4     LIBCMTD:fpexcept.obj
 0002:000074cc       ??_C@_04NPAI@sinh?$AA@     3009e4cc     LIBCMTD:fpexcept.obj
 0002:000074d4       ??_C@_05IJHH@log10?$AA@    3009e4d4     LIBCMTD:fpexcept.obj
 0002:000074dc       ??_C@_03BGKD@log?$AA@      3009e4dc     LIBCMTD:fpexcept.obj
 0002:000074e0       ??_C@_03EGFG@pow?$AA@      3009e4e0     LIBCMTD:fpexcept.obj
 0002:000074e4       ??_C@_03CDGJ@exp?$AA@      3009e4e4     LIBCMTD:fpexcept.obj
 0002:000074e8       ??_C@_0L@ENLJ@tidtable?4c?$AA@ 3009e4e8     LIBCMTD:tidtable.obj
 0002:000074f4       ??_C@_0DP@IHIN@?$CI?$CCinconsistent?5IOB?5fields?$CC?0?5stre@ 3009e4f4     LIBCMTD:_flsbuf.obj
 0002:00007534       ??_C@_09LGEI@_flsbuf?4c?$AA@ 3009e534     LIBCMTD:_flsbuf.obj
 0002:00007540       ??_C@_0M@KJPK@str?5?$CB?$DN?5NULL?$AA@ 3009e540     LIBCMTD:_flsbuf.obj
 0002:0000754c       ___lookuptable             3009e54c     LIBCMTD:output.obj
 0002:000075a8       ??_C@_1O@POHA@?$AA?$CI?$AAn?$AAu?$AAl?$AAl?$AA?$CJ?$AA?$AA@ 3009e5a8     LIBCMTD:output.obj
 0002:000075b8       ??_C@_06ONKE@?$CInull?$CJ?$AA@ 3009e5b8     LIBCMTD:output.obj
 0002:000075c0       ??_C@_08MIHI@output?4c?$AA@ 3009e5c0     LIBCMTD:output.obj
 0002:000075cc       ??_C@_0P@PIHB@ch?5?$CB?$DN?5_T?$CI?8?20?8?$CJ?$AA@ 3009e5cc     LIBCMTD:output.obj
 0002:000075dc       ??_C@_0BB@BLL@Assertion?5Failed?$AA@ 3009e5dc     LIBCMTD:dbgrpt.obj
 0002:000075f0       ??_C@_05CKBG@Error?$AA@    3009e5f0     LIBCMTD:dbgrpt.obj
 0002:000075f8       ??_C@_07JCGI@Warning?$AA@  3009e5f8     LIBCMTD:dbgrpt.obj
 0002:00007600       ??_C@_0M@ODEP@?$CFs?$CI?$CFd?$CJ?5?3?5?$CFs?$AA@ 3009e600     LIBCMTD:dbgrpt.obj
 0002:0000760c       ??_C@_01FEHD@?$AN?$AA@     3009e60c     LIBCMTD:dbgrpt.obj
 0002:00007610       ??_C@_0BD@BEAK@Assertion?5failed?3?5?$AA@ 3009e610     LIBCMTD:dbgrpt.obj
 0002:00007624       ??_C@_0CL@LCCP@_CrtDbgReport?3?5String?5too?5long?5o@ 3009e624     LIBCMTD:dbgrpt.obj
 0002:00007650       ??_C@_0DC@EMDK@Second?5Chance?5Assertion?5Failed?3?5@ 3009e650     LIBCMTD:dbgrpt.obj
 0002:00007684       ??_C@_09NJAK@wsprintfA?$AA@ 3009e684     LIBCMTD:dbgrpt.obj
 0002:00007690       ??_C@_0L@HKL@user32?4dll?$AA@ 3009e690     LIBCMTD:dbgrpt.obj
 0002:0000769c       ??_C@_0CD@GCMD@Microsoft?5Visual?5C?$CL?$CL?5Debug?5Libra@ 3009e69c     LIBCMTD:dbgrpt.obj
 0002:000076c0       ??_C@_0FD@EBDD@Debug?5?$CFs?$CB?6?6Program?3?5?$CFs?$CFs?$CFs?$CFs?$CFs?$CFs@ 3009e6c0     LIBCMTD:dbgrpt.obj
 0002:00007714       ??_C@_09DCKN@?6Module?3?5?$AA@ 3009e714     LIBCMTD:dbgrpt.obj
 0002:00007720       ??_C@_07HJII@?6File?3?5?$AA@ 3009e720     LIBCMTD:dbgrpt.obj
 0002:00007728       ??_C@_07LFGN@?6Line?3?5?$AA@ 3009e728     LIBCMTD:dbgrpt.obj
 0002:00007730       ??_C@_0HD@BHFH@?6?6For?5information?5on?5how?5your?5pr@ 3009e730     LIBCMTD:dbgrpt.obj
 0002:000077a4       ??_C@_08GFHP@dbgrpt?4c?$AA@ 3009e7a4     LIBCMTD:dbgrpt.obj
 0002:000077b0       ??_C@_0BG@FBEA@szUserMessage?5?$CB?$DN?5NULL?$AA@ 3009e7b0     LIBCMTD:dbgrpt.obj
 0002:00007800       ??_C@_08CNMA@winsig?4c?$AA@ 3009e800     LIBCMTD:winsig.obj
 0002:0000780c       ??_C@_0BD@NJFP@GetLastActivePopup?$AA@ 3009e80c     LIBCMTD:crtmbox.obj
 0002:00007820       ??_C@_0BA@GILI@GetActiveWindow?$AA@ 3009e820     LIBCMTD:crtmbox.obj
 0002:00007830       ??_C@_0M@PKCK@MessageBoxA?$AA@ 3009e830     LIBCMTD:crtmbox.obj
 0002:0000783c       ??_C@_09DLOM@fprintf?4c?$AA@ 3009e83c     LIBCMTD:fprintf.obj
 0002:00007848       ??_C@_09GCII@setvbuf?4c?$AA@ 3009e848     LIBCMTD:setvbuf.obj
 0002:00007854       ??_C@_07HPAH@_file?4c?$AA@ 3009e854     LIBCMTD:_file.obj
 0002:0000785c       ??_C@_07PDLA@mlock?4c?$AA@ 3009e85c     LIBCMTD:mlock.obj
 0002:00007864       ??_C@_07PCLE@LC_TIME?$AA@  3009e864     LIBCMTD:setlocal.obj
 0002:0000786c       ??_C@_0L@NKG@LC_NUMERIC?$AA@ 3009e86c     LIBCMTD:setlocal.obj
 0002:00007878       ??_C@_0M@CBIH@LC_MONETARY?$AA@ 3009e878     LIBCMTD:setlocal.obj
 0002:00007884       ??_C@_08LFGE@LC_CTYPE?$AA@ 3009e884     LIBCMTD:setlocal.obj
 0002:00007890       ??_C@_0L@CFLC@LC_COLLATE?$AA@ 3009e890     LIBCMTD:setlocal.obj
 0002:0000789c       ??_C@_06GCPK@LC_ALL?$AA@   3009e89c     LIBCMTD:setlocal.obj
 0002:000078a4       ??_C@_01FAJB@?$DL?$AA@     3009e8a4     LIBCMTD:setlocal.obj
 0002:000078a8       ??_C@_02BGDO@?$DN?$DL?$AA@ 3009e8a8     LIBCMTD:setlocal.obj
 0002:000078ac       ??_C@_0L@MOEE@setlocal?4c?$AA@ 3009e8ac     LIBCMTD:setlocal.obj
 0002:000078b8       ??_C@_03DBOJ@_?4?0?$AA@    3009e8b8     LIBCMTD:setlocal.obj
 0002:000078bc       ??_C@_01PJCK@?4?$AA@       3009e8bc     LIBCMTD:setlocal.obj
 0002:000078c0       ??_C@_01NON@_?$AA@         3009e8c0     LIBCMTD:setlocal.obj
 0002:000078c4       ??_C@_01A@?$AA?$AA@        3009e8c4     LIBCMTD:a_map.obj
 0002:000078c8       ??_C@_13A@?$AA?$AA?$AA?$AA@ 3009e8c8     LIBCMTD:a_map.obj
 0002:000078e8       ??_C@_08KFDJ@ioinit?4c?$AA@ 3009e8e8     LIBCMTD:ioinit.obj
 0002:000078f4       ??_C@_06DPMO@Client?$AA@   3009e8f4     LIBCMTD:dbgheap.obj
 0002:000078fc       ??_C@_06BAFM@Ignore?$AA@   3009e8fc     LIBCMTD:dbgheap.obj
 0002:00007904       ??_C@_03DICE@CRT?$AA@      3009e904     LIBCMTD:dbgheap.obj
 0002:00007908       ??_C@_06BILL@Normal?$AA@   3009e908     LIBCMTD:dbgheap.obj
 0002:00007910       ??_C@_04NEN@Free?$AA@      3009e910     LIBCMTD:dbgheap.obj
 0002:00007918       ??_C@_0DC@CGID@Error?3?5memory?5allocation?3?5bad?5me@ 3009e918     LIBCMTD:dbgheap.obj
 0002:0000794c       ??_C@_0CE@FMIA@Invalid?5allocation?5size?3?5?$CFu?5byte@ 3009e94c     LIBCMTD:dbgheap.obj
 0002:00007970       ??_C@_0CB@CPBI@Client?5hook?5allocation?5failure?4?6@ 3009e970     LIBCMTD:dbgheap.obj
 0002:00007994       ??_C@_0DF@DKHF@Client?5hook?5allocation?5failure?5a@ 3009e994     LIBCMTD:dbgheap.obj
 0002:000079cc       ??_C@_09IMJC@dbgheap?4c?$AA@ 3009e9cc     LIBCMTD:dbgheap.obj
 0002:000079d8       ??_C@_0BC@EPKL@_CrtCheckMemory?$CI?$CJ?$AA@ 3009e9d8     LIBCMTD:dbgheap.obj
 0002:000079ec       ??_C@_0BK@JDHA@_pFirstBlock?5?$DN?$DN?5pOldBlock?$AA@ 3009e9ec     LIBCMTD:dbgheap.obj
 0002:00007a08       ??_C@_0BJ@NMEF@_pLastBlock?5?$DN?$DN?5pOldBlock?$AA@ 3009ea08     LIBCMTD:dbgheap.obj
 0002:00007a24       ??_C@_0DC@BOCN@fRealloc?5?$HM?$HM?5?$CI?$CBfRealloc?5?$CG?$CG?5pNewBl@ 3009ea24     LIBCMTD:dbgheap.obj
 0002:00007a58       ??_C@_0DK@DKOM@_BLOCK_TYPE?$CIpOldBlock?9?$DOnBlockUse@ 3009ea58     LIBCMTD:dbgheap.obj
 0002:00007a94       ??_C@_0EF@EDKM@pOldBlock?9?$DOnLine?5?$DN?$DN?5IGNORE_LINE?5@ 3009ea94     LIBCMTD:dbgheap.obj
 0002:00007adc       ??_C@_0CC@GPMO@_CrtIsValidHeapPointer?$CIpUserData@ 3009eadc     LIBCMTD:dbgheap.obj
 0002:00007b00       ??_C@_0CN@FHGE@Allocation?5too?5large?5or?5negative@ 3009eb00     LIBCMTD:dbgheap.obj
 0002:00007b30       ??_C@_0CE@EAMN@Client?5hook?5re?9allocation?5failur@ 3009eb30     LIBCMTD:dbgheap.obj
 0002:00007b54       ??_C@_0DI@KKMM@Client?5hook?5re?9allocation?5failur@ 3009eb54     LIBCMTD:dbgheap.obj
 0002:00007b8c       ??_C@_0BG@JCEC@_pFirstBlock?5?$DN?$DN?5pHead?$AA@ 3009eb8c     LIBCMTD:dbgheap.obj
 0002:00007ba4       ??_C@_0BF@NLNN@_pLastBlock?5?$DN?$DN?5pHead?$AA@ 3009eba4     LIBCMTD:dbgheap.obj
 0002:00007bbc       ??_C@_0BO@PLHH@pHead?9?$DOnBlockUse?5?$DN?$DN?5nBlockUse?$AA@ 3009ebbc     LIBCMTD:dbgheap.obj
 0002:00007bdc       ??_C@_0DN@KKIO@pHead?9?$DOnLine?5?$DN?$DN?5IGNORE_LINE?5?$CG?$CG?5p@ 3009ebdc     LIBCMTD:dbgheap.obj
 0002:00007c1c       ??_C@_0CK@OJNB@DAMAGE?3?5after?5?$CFhs?5block?5?$CI?$CD?$CFd?$CJ?5at@ 3009ec1c     LIBCMTD:dbgheap.obj
 0002:00007c48       ??_C@_0CL@IJIL@DAMAGE?3?5before?5?$CFhs?5block?5?$CI?$CD?$CFd?$CJ?5a@ 3009ec48     LIBCMTD:dbgheap.obj
 0002:00007c74       ??_C@_0CH@PHOC@_BLOCK_TYPE_IS_VALID?$CIpHead?9?$DOnBlo@ 3009ec74     LIBCMTD:dbgheap.obj
 0002:00007c9c       ??_C@_0BL@MBNA@Client?5hook?5free?5failure?4?6?$AA@ 3009ec9c     LIBCMTD:dbgheap.obj
 0002:00007cb8       ??_C@_0DK@EKKL@memory?5check?5error?5at?50x?$CF08X?5?$DN?50@ 3009ecb8     LIBCMTD:dbgheap.obj
 0002:00007cf4       ??_C@_0CJ@GCII@?$CFhs?5located?5at?50x?$CF08X?5is?5?$CFu?5byte@ 3009ecf4     LIBCMTD:dbgheap.obj
 0002:00007d20       ??_C@_0CA@EJPI@?$CFhs?5allocated?5at?5file?5?$CFhs?$CI?$CFd?$CJ?4?6?$AA@ 3009ed20     LIBCMTD:dbgheap.obj
 0002:00007d40       ??_C@_0CJ@LHHG@DAMAGE?3?5on?5top?5of?5Free?5block?5at?5@ 3009ed40     LIBCMTD:dbgheap.obj
 0002:00007d6c       ??_C@_07GJHM@DAMAGED?$AA@  3009ed6c     LIBCMTD:dbgheap.obj
 0002:00007d74       ??_C@_0CL@ODIE@_heapchk?5fails?5with?5unknown?5retu@ 3009ed74     LIBCMTD:dbgheap.obj
 0002:00007da0       ??_C@_0CC@EHNC@_heapchk?5fails?5with?5_HEAPBADPTR?4@ 3009eda0     LIBCMTD:dbgheap.obj
 0002:00007dc4       ??_C@_0CC@JNDP@_heapchk?5fails?5with?5_HEAPBADEND?4@ 3009edc4     LIBCMTD:dbgheap.obj
 0002:00007de8       ??_C@_0CD@DNMG@_heapchk?5fails?5with?5_HEAPBADNODE@ 3009ede8     LIBCMTD:dbgheap.obj
 0002:00007e0c       ??_C@_0CE@JMCB@_heapchk?5fails?5with?5_HEAPBADBEGI@ 3009ee0c     LIBCMTD:dbgheap.obj
 0002:00007e30       ??_C@_0CD@MEMI@Bad?5memory?5block?5found?5at?50x?$CF08X@ 3009ee30     LIBCMTD:dbgheap.obj
 0002:00007e54       ??_C@_0CI@GMAO@_CrtMemCheckPoint?3?5NULL?5state?5po@ 3009ee54     LIBCMTD:dbgheap.obj
 0002:00007e7c       ??_C@_0CI@MNAE@_CrtMemDifference?3?5NULL?5state?5po@ 3009ee7c     LIBCMTD:dbgheap.obj
 0002:00007ea4       ??_C@_0BH@PKIJ@Object?5dump?5complete?4?6?$AA@ 3009eea4     LIBCMTD:dbgheap.obj
 0002:00007ebc       ??_C@_0DB@DBPF@crt?5block?5at?50x?$CF08X?0?5subtype?5?$CFx?0@ 3009eebc     LIBCMTD:dbgheap.obj
 0002:00007ef0       ??_C@_0CI@JLM@normal?5block?5at?50x?$CF08X?0?5?$CFu?5bytes@ 3009eef0     LIBCMTD:dbgheap.obj
 0002:00007f18       ??_C@_0DE@PFEA@client?5block?5at?50x?$CF08X?0?5subtype?5@ 3009ef18     LIBCMTD:dbgheap.obj
 0002:00007f4c       ??_C@_06MBCE@?$HL?$CFld?$HN?5?$AA@ 3009ef4c     LIBCMTD:dbgheap.obj
 0002:00007f54       ??_C@_0L@BLDJ@?$CFhs?$CI?$CFd?$CJ?5?3?5?$AA@ 3009ef54     LIBCMTD:dbgheap.obj
 0002:00007f60       ??_C@_0BE@FEMA@?$CDFile?5Error?$CD?$CI?$CFd?$CJ?5?3?5?$AA@ 3009ef60     LIBCMTD:dbgheap.obj
 0002:00007f74       ??_C@_0BE@FPPM@Dumping?5objects?5?9?$DO?6?$AA@ 3009ef74     LIBCMTD:dbgheap.obj
 0002:00007f88       ??_C@_0BA@POLM@?5Data?3?5?$DM?$CFs?$DO?5?$CFs?6?$AA@ 3009ef88     LIBCMTD:dbgheap.obj
 0002:00007f98       ??_C@_05JLAO@?$CF?42X?5?$AA@ 3009ef98     LIBCMTD:dbgheap.obj
 0002:00007fa0       ??_C@_0BI@KONA@Detected?5memory?5leaks?$CB?6?$AA@ 3009efa0     LIBCMTD:dbgheap.obj
 0002:00007fb8       ??_C@_0BP@LCCN@Total?5allocations?3?5?$CFld?5bytes?4?6?$AA@ 3009efb8     LIBCMTD:dbgheap.obj
 0002:00007fd8       ??_C@_0CB@COID@Largest?5number?5used?3?5?$CFld?5bytes?4?6@ 3009efd8     LIBCMTD:dbgheap.obj
 0002:00007ffc       ??_C@_0BO@MEJD@?$CFld?5bytes?5in?5?$CFld?5?$CFhs?5Blocks?4?6?$AA@ 3009effc     LIBCMTD:dbgheap.obj
 0002:0000801c       ??_C@_09IGKD@stdenvp?4c?$AA@ 3009f01c     LIBCMTD:stdenvp.obj
 0002:00008028       ??_C@_09MPMN@stdargv?4c?$AA@ 3009f028     LIBCMTD:stdargv.obj
 0002:00008034       ??_C@_07BNNE@a_env?4c?$AA@ 3009f034     LIBCMTD:a_env.obj
 0002:0000803c       ??_C@_0P@GGKG@runtime?5error?5?$AA@ 3009f03c     LIBCMTD:crt0msg.obj
 0002:0000804c       ??_C@_02PIMC@?$AN?6?$AA@   3009f04c     LIBCMTD:crt0msg.obj
 0002:00008050       ??_C@_0O@DELO@TLOSS?5error?$AN?6?$AA@ 3009f050     LIBCMTD:crt0msg.obj
 0002:00008060       ??_C@_0N@OMLL@SING?5error?$AN?6?$AA@ 3009f060     LIBCMTD:crt0msg.obj
 0002:00008070       ??_C@_0P@OJAK@DOMAIN?5error?$AN?6?$AA@ 3009f070     LIBCMTD:crt0msg.obj
 0002:00008080       ??_C@_0CF@EANP@R6028?$AN?6?9?5unable?5to?5initialize?5he@ 3009f080     LIBCMTD:crt0msg.obj
 0002:000080a8       ??_C@_0DF@ECGN@R6027?$AN?6?9?5not?5enough?5space?5for?5lo@ 3009f0a8     LIBCMTD:crt0msg.obj
 0002:000080e0       ??_C@_0DF@FKAC@R6026?$AN?6?9?5not?5enough?5space?5for?5st@ 3009f0e0     LIBCMTD:crt0msg.obj
 0002:00008118       ??_C@_0CG@DPMN@R6025?$AN?6?9?5pure?5virtual?5function?5c@ 3009f118     LIBCMTD:crt0msg.obj
 0002:00008140       ??_C@_0DF@CKIP@R6024?$AN?6?9?5not?5enough?5space?5for?5_o@ 3009f140     LIBCMTD:crt0msg.obj
 0002:00008178       ??_C@_0CJ@GGOE@R6019?$AN?6?9?5unable?5to?5open?5console?5@ 3009f178     LIBCMTD:crt0msg.obj
 0002:000081a4       ??_C@_0CB@LBOB@R6018?$AN?6?9?5unexpected?5heap?5error?$AN?6@ 3009f1a4     LIBCMTD:crt0msg.obj
 0002:000081c8       ??_C@_0CN@FPEG@R6017?$AN?6?9?5unexpected?5multithread?5@ 3009f1c8     LIBCMTD:crt0msg.obj
 0002:000081f8       ??_C@_0CM@OBIC@R6016?$AN?6?9?5not?5enough?5space?5for?5th@ 3009f1f8     LIBCMTD:crt0msg.obj
 0002:00008224       ??_C@_0CB@HPAL@?$AN?6abnormal?5program?5termination?$AN?6@ 3009f224     LIBCMTD:crt0msg.obj
 0002:00008248       ??_C@_0CM@JOOB@R6009?$AN?6?9?5not?5enough?5space?5for?5en@ 3009f248     LIBCMTD:crt0msg.obj
 0002:00008274       ??_C@_0CK@OIBL@R6008?$AN?6?9?5not?5enough?5space?5for?5ar@ 3009f274     LIBCMTD:crt0msg.obj
 0002:000082a0       ??_C@_0CF@LKPB@R6002?$AN?6?9?5floating?5point?5not?5load@ 3009f2a0     LIBCMTD:crt0msg.obj
 0002:000082c8       ??_C@_0BK@DEOK@Runtime?5Error?$CB?6?6Program?3?5?$AA@ 3009f2c8     LIBCMTD:crt0msg.obj
 0002:000082f4       ??_C@_09EMDO@_getbuf?4c?$AA@ 3009f2f4     LIBCMTD:_getbuf.obj
 0002:00008300       ??_C@_09NEAG@sprintf?4c?$AA@ 3009f300     LIBCMTD:snprintf.obj
 0002:0000830c       ??_C@_09JNND@_sftbuf?4c?$AA@ 3009f30c     LIBCMTD:_sftbuf.obj
 0002:00008318       ??_C@_0BH@EOPG@flag?5?$DN?$DN?50?5?$HM?$HM?5flag?5?$DN?$DN?51?$AA@ 3009f318     LIBCMTD:_sftbuf.obj
 0002:00008330       ??_C@_0L@JIE@_freebuf?4c?$AA@ 3009f330     LIBCMTD:_freebuf.obj
 0002:0000833c       ??_C@_0P@FHEA@stream?5?$CB?$DN?5NULL?$AA@ 3009f33c     LIBCMTD:_freebuf.obj
 0002:0000834c       ??_C@_0L@EEGJ@inittime?4c?$AA@ 3009f34c     LIBCMTD:inittime.obj
 0002:00008358       ??_C@_09IMJJ@initnum?4c?$AA@ 3009f358     LIBCMTD:initnum.obj
 0002:00008364       ??_C@_09KPNI@initmon?4c?$AA@ 3009f364     LIBCMTD:initmon.obj
 0002:00008370       ??_C@_0L@COIL@initctyp?4c?$AA@ 3009f370     LIBCMTD:initctyp.obj
 0002:0000837c       ??_C@_08OBJD@Paraguay?$AA@ 3009f37c     LIBCMTD:getqloc.obj
 0002:00008388       ??_C@_07GLKH@Uruguay?$AA@  3009f388     LIBCMTD:getqloc.obj
 0002:00008390       ??_C@_05FPFC@Chile?$AA@    3009f390     LIBCMTD:getqloc.obj
 0002:00008398       ??_C@_07IIGF@Ecuador?$AA@  3009f398     LIBCMTD:getqloc.obj
 0002:000083a0       ??_C@_09PKAL@Argentina?$AA@ 3009f3a0     LIBCMTD:getqloc.obj
 0002:000083ac       ??_C@_04LKAH@Peru?$AA@     3009f3ac     LIBCMTD:getqloc.obj
 0002:000083b4       ??_C@_08NEEM@Colombia?$AA@ 3009f3b4     LIBCMTD:getqloc.obj
 0002:000083c0       ??_C@_09ODEB@Venezuela?$AA@ 3009f3c0     LIBCMTD:getqloc.obj
 0002:000083cc       ??_C@_0BD@CLEL@Dominican?5Republic?$AA@ 3009f3cc     LIBCMTD:getqloc.obj
 0002:000083e0       ??_C@_0N@MDGL@South?5Africa?$AA@ 3009f3e0     LIBCMTD:getqloc.obj
 0002:000083f0       ??_C@_06NKBG@Panama?$AA@   3009f3f0     LIBCMTD:getqloc.obj
 0002:000083f8       ??_C@_0L@BMHO@Luxembourg?$AA@ 3009f3f8     LIBCMTD:getqloc.obj
 0002:00008404       ??_C@_0L@IMDK@Costa?5Rica?$AA@ 3009f404     LIBCMTD:getqloc.obj
 0002:00008410       ??_C@_0M@BLJF@Switzerland?$AA@ 3009f410     LIBCMTD:getqloc.obj
 0002:0000841c       ??_C@_09KBOL@Guatemala?$AA@ 3009f41c     LIBCMTD:getqloc.obj
 0002:00008428       ??_C@_06JNAK@Canada?$AA@   3009f428     LIBCMTD:getqloc.obj
 0002:00008430       ??_C@_0BG@OLLP@Spanish?5?9?5Modern?5Sort?$AA@ 3009f430     LIBCMTD:getqloc.obj
 0002:00008448       ??_C@_09IDKE@Australia?$AA@ 3009f448     LIBCMTD:getqloc.obj
 0002:00008454       ??_C@_07JJJJ@English?$AA@  3009f454     LIBCMTD:getqloc.obj
 0002:0000845c       ??_C@_07NMDO@Austria?$AA@  3009f45c     LIBCMTD:getqloc.obj
 0002:00008464       ??_C@_06DEFE@German?$AA@   3009f464     LIBCMTD:getqloc.obj
 0002:0000846c       ??_C@_07JAIH@Belgium?$AA@  3009f46c     LIBCMTD:getqloc.obj
 0002:00008474       ??_C@_06BNLJ@Mexico?$AA@   3009f474     LIBCMTD:getqloc.obj
 0002:0000847c       ??_C@_07JHAG@Spanish?$AA@  3009f47c     LIBCMTD:getqloc.obj
 0002:00008484       ??_C@_06DADE@Basque?$AA@   3009f484     LIBCMTD:getqloc.obj
 0002:0000848c       ??_C@_06ENFP@Sweden?$AA@   3009f48c     LIBCMTD:getqloc.obj
 0002:00008494       ??_C@_07JPMH@Swedish?$AA@  3009f494     LIBCMTD:getqloc.obj
 0002:0000849c       ??_C@_07IEKF@Iceland?$AA@  3009f49c     LIBCMTD:getqloc.obj
 0002:000084a4       ??_C@_09KNEA@Icelandic?$AA@ 3009f4a4     LIBCMTD:getqloc.obj
 0002:000084b0       ??_C@_06IJOD@France?$AA@   3009f4b0     LIBCMTD:getqloc.obj
 0002:000084b8       ??_C@_06EINI@French?$AA@   3009f4b8     LIBCMTD:getqloc.obj
 0002:000084c0       ??_C@_07FOOE@Finland?$AA@  3009f4c0     LIBCMTD:getqloc.obj
 0002:000084c8       ??_C@_07OJOM@Finnish?$AA@  3009f4c8     LIBCMTD:getqloc.obj
 0002:000084d0       ??_C@_05FFAC@Spain?$AA@    3009f4d0     LIBCMTD:getqloc.obj
 0002:000084d8       ??_C@_0BL@BIHM@Spanish?5?9?5Traditional?5Sort?$AA@ 3009f4d8     LIBCMTD:getqloc.obj
 0002:000084f4       ??_C@_0O@GLHB@united?9states?$AA@ 3009f4f4     LIBCMTD:getqloc.obj
 0002:00008504       ??_C@_0P@IIKK@united?9kingdom?$AA@ 3009f504     LIBCMTD:getqloc.obj
 0002:00008514       ??_C@_0BC@FHBO@trinidad?5?$CG?5tobago?$AA@ 3009f514     LIBCMTD:getqloc.obj
 0002:00008528       ??_C@_0M@BDFM@south?9korea?$AA@ 3009f528     LIBCMTD:getqloc.obj
 0002:00008534       ??_C@_0N@CKFA@south?9africa?$AA@ 3009f534     LIBCMTD:getqloc.obj
 0002:00008544       ??_C@_0M@HNHN@south?5korea?$AA@ 3009f544     LIBCMTD:getqloc.obj
 0002:00008550       ??_C@_0N@MKDO@south?5africa?$AA@ 3009f550     LIBCMTD:getqloc.obj
 0002:00008560       ??_C@_06KFFJ@slovak?$AA@   3009f560     LIBCMTD:getqloc.obj
 0002:00008568       ??_C@_0M@NMAC@puerto?9rico?$AA@ 3009f568     LIBCMTD:getqloc.obj
 0002:00008574       ??_C@_08EJOH@pr?9china?$AA@ 3009f574     LIBCMTD:getqloc.obj
 0002:00008580       ??_C@_08CHMG@pr?5china?$AA@ 3009f580     LIBCMTD:getqloc.obj
 0002:0000858c       ??_C@_02OCJK@nz?$AA@       3009f58c     LIBCMTD:getqloc.obj
 0002:00008590       ??_C@_0M@MMKA@new?9zealand?$AA@ 3009f590     LIBCMTD:getqloc.obj
 0002:0000859c       ??_C@_09MGEH@hong?9kong?$AA@ 3009f59c     LIBCMTD:getqloc.obj
 0002:000085a8       ??_C@_07CCAK@holland?$AA@  3009f5a8     LIBCMTD:getqloc.obj
 0002:000085b0       ??_C@_0O@MEPL@great?5britain?$AA@ 3009f5b0     LIBCMTD:getqloc.obj
 0002:000085c0       ??_C@_07LGIB@england?$AA@  3009f5c0     LIBCMTD:getqloc.obj
 0002:000085c8       ??_C@_05BMOA@czech?$AA@    3009f5c8     LIBCMTD:getqloc.obj
 0002:000085d0       ??_C@_05NMPB@china?$AA@    3009f5d0     LIBCMTD:getqloc.obj
 0002:000085d8       ??_C@_07GN@britain?$AA@    3009f5d8     LIBCMTD:getqloc.obj
 0002:000085e0       ??_C@_07DLAK@america?$AA@  3009f5e0     LIBCMTD:getqloc.obj
 0002:000085e8       ??_C@_03IPEP@usa?$AA@      3009f5e8     LIBCMTD:getqloc.obj
 0002:000085ec       ??_C@_02PILH@us?$AA@       3009f5ec     LIBCMTD:getqloc.obj
 0002:000085f0       ??_C@_02FHP@uk?$AA@        3009f5f0     LIBCMTD:getqloc.obj
 0002:000085f4       ??_C@_05DEAI@swiss?$AA@    3009f5f4     LIBCMTD:getqloc.obj
 0002:000085fc       ??_C@_0BA@LIAF@swedish?9finland?$AA@ 3009f5fc     LIBCMTD:getqloc.obj
 0002:0000860c       ??_C@_0BC@FMEG@spanish?9venezuela?$AA@ 3009f60c     LIBCMTD:getqloc.obj
 0002:00008620       ??_C@_0BA@BNMG@spanish?9uruguay?$AA@ 3009f620     LIBCMTD:getqloc.obj
 0002:00008630       ??_C@_0BE@BKDJ@spanish?9puerto?5rico?$AA@ 3009f630     LIBCMTD:getqloc.obj
 0002:00008644       ??_C@_0N@JIBL@spanish?9peru?$AA@ 3009f644     LIBCMTD:getqloc.obj
 0002:00008654       ??_C@_0BB@OGOF@spanish?9paraguay?$AA@ 3009f654     LIBCMTD:getqloc.obj
 0002:00008668       ??_C@_0P@LLFA@spanish?9panama?$AA@ 3009f668     LIBCMTD:getqloc.obj
 0002:00008678       ??_C@_0BC@BBJM@spanish?9nicaragua?$AA@ 3009f678     LIBCMTD:getqloc.obj
 0002:0000868c       ??_C@_0P@NJBN@spanish?9modern?$AA@ 3009f68c     LIBCMTD:getqloc.obj
 0002:0000869c       ??_C@_0BA@NHDN@spanish?9mexican?$AA@ 3009f69c     LIBCMTD:getqloc.obj
 0002:000086ac       ??_C@_0BB@JHOJ@spanish?9honduras?$AA@ 3009f6ac     LIBCMTD:getqloc.obj
 0002:000086c0       ??_C@_0BC@BOOM@spanish?9guatemala?$AA@ 3009f6c0     LIBCMTD:getqloc.obj
 0002:000086d4       ??_C@_0BE@EELI@spanish?9el?5salvador?$AA@ 3009f6d4     LIBCMTD:getqloc.obj
 0002:000086e8       ??_C@_0BA@POAE@spanish?9ecuador?$AA@ 3009f6e8     LIBCMTD:getqloc.obj
 0002:000086f8       ??_C@_0BL@LDKN@spanish?9dominican?5republic?$AA@ 3009f6f8     LIBCMTD:getqloc.obj
 0002:00008714       ??_C@_0BD@HPMH@spanish?9costa?5rica?$AA@ 3009f714     LIBCMTD:getqloc.obj
 0002:00008728       ??_C@_0BB@NDDK@spanish?9colombia?$AA@ 3009f728     LIBCMTD:getqloc.obj
 0002:0000873c       ??_C@_0O@BJHA@spanish?9chile?$AA@ 3009f73c     LIBCMTD:getqloc.obj
 0002:0000874c       ??_C@_0BA@OBNG@spanish?9bolivia?$AA@ 3009f74c     LIBCMTD:getqloc.obj
 0002:0000875c       ??_C@_0BC@EFAM@spanish?9argentina?$AA@ 3009f75c     LIBCMTD:getqloc.obj
 0002:00008770       ??_C@_0BF@KMMM@portuguese?9brazilian?$AA@ 3009f770     LIBCMTD:getqloc.obj
 0002:00008788       ??_C@_0BC@BAAE@norwegian?9nynorsk?$AA@ 3009f788     LIBCMTD:getqloc.obj
 0002:0000879c       ??_C@_0BB@PBHK@norwegian?9bokmal?$AA@ 3009f79c     LIBCMTD:getqloc.obj
 0002:000087b0       ??_C@_09EHKL@norwegian?$AA@ 3009f7b0     LIBCMTD:getqloc.obj
 0002:000087bc       ??_C@_0O@BEAN@italian?9swiss?$AA@ 3009f7bc     LIBCMTD:getqloc.obj
 0002:000087cc       ??_C@_0O@OIFK@irish?9english?$AA@ 3009f7cc     LIBCMTD:getqloc.obj
 0002:000087dc       ??_C@_0N@NBPL@german?9swiss?$AA@ 3009f7dc     LIBCMTD:getqloc.obj
 0002:000087ec       ??_C@_0BC@ICFJ@german?9luxembourg?$AA@ 3009f7ec     LIBCMTD:getqloc.obj
 0002:00008800       ??_C@_0BE@GGPC@german?9lichtenstein?$AA@ 3009f800     LIBCMTD:getqloc.obj
 0002:00008814       ??_C@_0BA@MKDC@german?9austrian?$AA@ 3009f814     LIBCMTD:getqloc.obj
 0002:00008824       ??_C@_0N@ODNB@french?9swiss?$AA@ 3009f824     LIBCMTD:getqloc.obj
 0002:00008834       ??_C@_0BC@MGCM@french?9luxembourg?$AA@ 3009f834     LIBCMTD:getqloc.obj
 0002:00008848       ??_C@_0BA@NABK@french?9canadian?$AA@ 3009f848     LIBCMTD:getqloc.obj
 0002:00008858       ??_C@_0P@CJNO@french?9belgian?$AA@ 3009f858     LIBCMTD:getqloc.obj
 0002:00008868       ??_C@_0M@LJOL@english?9usa?$AA@ 3009f868     LIBCMTD:getqloc.obj
 0002:00008874       ??_C@_0L@FMNC@english?9us?$AA@ 3009f874     LIBCMTD:getqloc.obj
 0002:00008880       ??_C@_0L@KBBK@english?9uk?$AA@ 3009f880     LIBCMTD:getqloc.obj
 0002:0000888c       ??_C@_0BK@NDDE@english?9trinidad?5y?5tobago?$AA@ 3009f88c     LIBCMTD:getqloc.obj
 0002:000088a8       ??_C@_0BF@LKML@english?9south?5africa?$AA@ 3009f8a8     LIBCMTD:getqloc.obj
 0002:000088c0       ??_C@_0L@EGPP@english?9nz?$AA@ 3009f8c0     LIBCMTD:getqloc.obj
 0002:000088cc       ??_C@_0BA@HLH@english?9jamaica?$AA@ 3009f8cc     LIBCMTD:getqloc.obj
 0002:000088dc       ??_C@_0M@PMJI@english?9ire?$AA@ 3009f8dc     LIBCMTD:getqloc.obj
 0002:000088e8       ??_C@_0BC@HINE@english?9caribbean?$AA@ 3009f8e8     LIBCMTD:getqloc.obj
 0002:000088fc       ??_C@_0M@DCFH@english?9can?$AA@ 3009f8fc     LIBCMTD:getqloc.obj
 0002:00008908       ??_C@_0P@DGHK@english?9belize?$AA@ 3009f908     LIBCMTD:getqloc.obj
 0002:00008918       ??_C@_0M@FLHK@english?9aus?$AA@ 3009f918     LIBCMTD:getqloc.obj
 0002:00008924       ??_C@_0BB@HNCK@english?9american?$AA@ 3009f924     LIBCMTD:getqloc.obj
 0002:00008938       ??_C@_0O@PAMI@dutch?9belgian?$AA@ 3009f938     LIBCMTD:getqloc.obj
 0002:00008948       ??_C@_0BE@FPEJ@chinese?9traditional?$AA@ 3009f948     LIBCMTD:getqloc.obj
 0002:0000895c       ??_C@_0BC@CHFL@chinese?9singapore?$AA@ 3009f95c     LIBCMTD:getqloc.obj
 0002:00008970       ??_C@_0BD@DCMH@chinese?9simplified?$AA@ 3009f970     LIBCMTD:getqloc.obj
 0002:00008984       ??_C@_0BB@JMOE@chinese?9hongkong?$AA@ 3009f984     LIBCMTD:getqloc.obj
 0002:00008998       ??_C@_07NGFN@chinese?$AA@  3009f998     LIBCMTD:getqloc.obj
 0002:000089a0       ??_C@_03PCOI@chi?$AA@      3009f9a0     LIBCMTD:getqloc.obj
 0002:000089a4       ??_C@_03FIHP@chh?$AA@      3009f9a4     LIBCMTD:getqloc.obj
 0002:000089a8       ??_C@_08HFLO@canadian?$AA@ 3009f9a8     LIBCMTD:getqloc.obj
 0002:000089b4       ??_C@_07INIJ@belgian?$AA@  3009f9b4     LIBCMTD:getqloc.obj
 0002:000089bc       ??_C@_0L@LCCA@australian?$AA@ 3009f9bc     LIBCMTD:getqloc.obj
 0002:000089c8       ??_C@_0BB@BJIO@american?9english?$AA@ 3009f9c8     LIBCMTD:getqloc.obj
 0002:000089dc       ??_C@_0BB@DAGO@american?5english?$AA@ 3009f9dc     LIBCMTD:getqloc.obj
 0002:000089f0       ??_C@_08HENB@american?$AA@ 3009f9f0     LIBCMTD:getqloc.obj
 0002:000089fc       ??_C@_03DGJE@OCP?$AA@      3009f9fc     LIBCMTD:getqloc.obj
 0002:00008a00       ??_C@_03EKFG@ACP?$AA@      3009fa00     LIBCMTD:getqloc.obj
 0002:00008a04       ??_C@_06PAPI@1?$CDQNAN?$AA@ 3009fa04     LIBCMTD:x10fout.obj
 0002:00008a0c       ??_C@_05BGNL@1?$CDINF?$AA@ 3009fa0c     LIBCMTD:x10fout.obj
 0002:00008a14       ??_C@_05EDPF@1?$CDIND?$AA@ 3009fa14     LIBCMTD:x10fout.obj
 0002:00008a1c       ??_C@_06LKFM@1?$CDSNAN?$AA@ 3009fa1c     LIBCMTD:x10fout.obj
 0002:00008a24       ??_C@_09LNLM@osfinfo?4c?$AA@ 3009fa24     LIBCMTD:osfinfo.obj
 0002:00008a30       ??_C@_08PHBD@fclose?4c?$AA@ 3009fa30     LIBCMTD:fclose.obj
 0002:00008a3c       ??_C@_07CJME@H?3mm?3ss?$AA@ 3009fa3c     LIBCMTD:strftime.obj
 0002:00008a44       ??_C@_0BE@MHI@dddd?0?5MMMM?5dd?0?5yyyy?$AA@ 3009fa44     LIBCMTD:strftime.obj
 0002:00008a58       ??_C@_06HCAD@M?1d?1yy?$AA@ 3009fa58     LIBCMTD:strftime.obj
 0002:00008a60       ??_C@_02DBLP@PM?$AA@       3009fa60     LIBCMTD:strftime.obj
 0002:00008a64       ??_C@_02ENLM@AM?$AA@       3009fa64     LIBCMTD:strftime.obj
 0002:00008a68       ??_C@_08LIDF@December?$AA@ 3009fa68     LIBCMTD:strftime.obj
 0002:00008a74       ??_C@_08NJLI@November?$AA@ 3009fa74     LIBCMTD:strftime.obj
 0002:00008a80       ??_C@_07IAMM@October?$AA@  3009fa80     LIBCMTD:strftime.obj
 0002:00008a88       ??_C@_09MKGD@September?$AA@ 3009fa88     LIBCMTD:strftime.obj
 0002:00008a94       ??_C@_06PADP@August?$AA@   3009fa94     LIBCMTD:strftime.obj
 0002:00008a9c       ??_C@_04PIJO@July?$AA@     3009fa9c     LIBCMTD:strftime.obj
 0002:00008aa4       ??_C@_04ICFP@June?$AA@     3009faa4     LIBCMTD:strftime.obj
 0002:00008aac       ??_C@_05JFGC@April?$AA@    3009faac     LIBCMTD:strftime.obj
 0002:00008ab4       ??_C@_05FGPD@March?$AA@    3009fab4     LIBCMTD:strftime.obj
 0002:00008abc       ??_C@_08PGBA@February?$AA@ 3009fabc     LIBCMTD:strftime.obj
 0002:00008ac8       ??_C@_07BPKJ@January?$AA@  3009fac8     LIBCMTD:strftime.obj
 0002:00008ad0       ??_C@_03PGJO@Dec?$AA@      3009fad0     LIBCMTD:strftime.obj
 0002:00008ad4       ??_C@_03PDLM@Nov?$AA@      3009fad4     LIBCMTD:strftime.obj
 0002:00008ad8       ??_C@_03BLHK@Oct?$AA@      3009fad8     LIBCMTD:strftime.obj
 0002:00008adc       ??_C@_03DPFM@Sep?$AA@      3009fadc     LIBCMTD:strftime.obj
 0002:00008ae0       ??_C@_03CMCH@Aug?$AA@      3009fae0     LIBCMTD:strftime.obj
 0002:00008ae4       ??_C@_03OBKI@Jul?$AA@      3009fae4     LIBCMTD:strftime.obj
 0002:00008ae8       ??_C@_03LEIG@Jun?$AA@      3009fae8     LIBCMTD:strftime.obj
 0002:00008aec       ??_C@_03MGHB@May?$AA@      3009faec     LIBCMTD:strftime.obj
 0002:00008af0       ??_C@_03MJJM@Apr?$AA@      3009faf0     LIBCMTD:strftime.obj
 0002:00008af4       ??_C@_03GNHA@Mar?$AA@      3009faf4     LIBCMTD:strftime.obj
 0002:00008af8       ??_C@_03PICE@Feb?$AA@      3009faf8     LIBCMTD:strftime.obj
 0002:00008afc       ??_C@_03IEIF@Jan?$AA@      3009fafc     LIBCMTD:strftime.obj
 0002:00008b00       ??_C@_08FAKH@Saturday?$AA@ 3009fb00     LIBCMTD:strftime.obj
 0002:00008b0c       ??_C@_06ONCK@Friday?$AA@   3009fb0c     LIBCMTD:strftime.obj
 0002:00008b14       ??_C@_08CCFO@Thursday?$AA@ 3009fb14     LIBCMTD:strftime.obj
 0002:00008b20       ??_C@_09PBIN@Wednesday?$AA@ 3009fb20     LIBCMTD:strftime.obj
 0002:00008b2c       ??_C@_07BMBC@Tuesday?$AA@  3009fb2c     LIBCMTD:strftime.obj
 0002:00008b34       ??_C@_06CHLK@Monday?$AA@   3009fb34     LIBCMTD:strftime.obj
 0002:00008b3c       ??_C@_06OOEM@Sunday?$AA@   3009fb3c     LIBCMTD:strftime.obj
 0002:00008b44       ??_C@_03MPKK@Sat?$AA@      3009fb44     LIBCMTD:strftime.obj
 0002:00008b48       ??_C@_03FINJ@Fri?$AA@      3009fb48     LIBCMTD:strftime.obj
 0002:00008b4c       ??_C@_03HIKC@Thu?$AA@      3009fb4c     LIBCMTD:strftime.obj
 0002:00008b50       ??_C@_03HECK@Wed?$AA@      3009fb50     LIBCMTD:strftime.obj
 0002:00008b54       ??_C@_03ECCP@Tue?$AA@      3009fb54     LIBCMTD:strftime.obj
 0002:00008b58       ??_C@_03PIEP@Mon?$AA@      3009fb58     LIBCMTD:strftime.obj
 0002:00008b5c       ??_C@_03FHEP@Sun?$AA@      3009fb5c     LIBCMTD:strftime.obj
 0002:00008b60       ??_C@_03MKGK@a?1p?$AA@     3009fb60     LIBCMTD:strftime.obj
 0002:00008b64       ??_C@_05BDJK@am?1pm?$AA@   3009fb64     LIBCMTD:strftime.obj
 0002:00008b6c       ??_C@_0L@HKCB@inithelp?4c?$AA@ 3009fb6c     LIBCMTD:inithelp.obj
 0002:00008b90       ___dnames                  3009fb90     LIBCMTD:timeset.obj
 0002:00008ba8       ___mnames                  3009fba8     LIBCMTD:timeset.obj
 0002:00008bd0       ??_C@_07DEKI@tzset?4c?$AA@ 3009fbd0     LIBCMTD:tzset.obj
 0002:00008bd8       ??_C@_02JHIA@TZ?$AA@       3009fbd8     LIBCMTD:tzset.obj
 0002:00008bfc       ??_C@_0L@EJNO@wtombenv?4c?$AA@ 3009fbfc     LIBCMTD:wtombenv.obj
 0002:00008c08       ??_C@_07FOIK@a_cmp?4c?$AA@ 3009fc08     LIBCMTD:a_cmp.obj
 0002:00008c10       ??_C@_0DN@PPKB@cchCount1?$DN?$DN0?5?$CG?$CG?5cchCount2?$DN?$DN1?5?$HM?$HM?5@ 3009fc10     LIBCMTD:a_cmp.obj
 0002:00008c68       ??_C@_08FEIK@setenv?4c?$AA@ 3009fc68     LIBCMTD:setenv.obj
 0003:00000000       ___xc_a                    300a1000     LIBCMTD:crt0init.obj
 0003:00000104       ___xc_z                    300a1104     LIBCMTD:crt0init.obj
 0003:00000208       ___xi_a                    300a1208     LIBCMTD:crt0init.obj
 0003:00000418       ___xi_z                    300a1418     LIBCMTD:crt0init.obj
 0003:0000051c       ___xp_a                    300a151c     LIBCMTD:crt0init.obj
 0003:00000724       ___xp_z                    300a1724     LIBCMTD:crt0init.obj
 0003:00000828       ___xt_a                    300a1828     LIBCMTD:crt0init.obj
 0003:0000092c       ___xt_z                    300a192c     LIBCMTD:crt0init.obj
 0003:00000a30       _bg_itemlist               300a1a30     bg_misc.obj
 0003:000011b4       _bg_numItems               300a21b4     bg_misc.obj
 0003:000011b8       _eventnames                300a21b8     bg_misc.obj
 0003:000014a8       _pm_stopspeed              300a24a8     bg_pmove.obj
 0003:000014ac       _pm_duckScale              300a24ac     bg_pmove.obj
 0003:000014b0       _pm_swimScale              300a24b0     bg_pmove.obj
 0003:000014b4       _pm_wadeScale              300a24b4     bg_pmove.obj
 0003:000014b8       _pm_accelerate             300a24b8     bg_pmove.obj
 0003:000014bc       _pm_airaccelerate          300a24bc     bg_pmove.obj
 0003:000014c0       _pm_wateraccelerate        300a24c0     bg_pmove.obj
 0003:000014c4       _pm_flyaccelerate          300a24c4     bg_pmove.obj
 0003:000014c8       _pm_friction               300a24c8     bg_pmove.obj
 0003:000014cc       _pm_waterfriction          300a24cc     bg_pmove.obj
 0003:000014d0       _pm_flightfriction         300a24d0     bg_pmove.obj
 0003:000014d4       _pm_spectatorfriction      300a24d4     bg_pmove.obj
 0003:000015c4       _drawTeamOverlayModificationCount 300a25c4     cg_draw.obj
 0003:00001f38       _forceModelModificationCount 300a2f38     cg_main.obj
 0003:000027a8       _cl_numparticles           300a37a8     cg_marks.obj
 0003:000027fc       _cg_customSoundNames       300a37fc     cg_players.obj
 0003:000028dc       _axisDefault               300a38dc     q_math.obj
 0003:00002900       _colorBlack                300a3900     q_math.obj
 0003:00002910       _colorRed                  300a3910     q_math.obj
 0003:00002920       _colorGreen                300a3920     q_math.obj
 0003:00002930       _colorBlue                 300a3930     q_math.obj
 0003:00002940       _colorYellow               300a3940     q_math.obj
 0003:00002950       _colorMagenta              300a3950     q_math.obj
 0003:00002960       _colorCyan                 300a3960     q_math.obj
 0003:00002970       _colorWhite                300a3970     q_math.obj
 0003:00002980       _colorLtGrey               300a3980     q_math.obj
 0003:00002990       _colorMdGrey               300a3990     q_math.obj
 0003:000029a0       _colorDkGrey               300a39a0     q_math.obj
 0003:000029b0       _g_color_table             300a39b0     q_math.obj
 0003:00002a30       _bytedirs                  300a3a30     q_math.obj
 0003:00003390       ?__LINE__Var@?1??ProjectPointOnPlane@@9@9 300a4390     q_math.obj
 0003:000033a0       _commandList               300a43a0     ui_shared.obj
 0003:00003448       _scriptCommandCount        300a4448     ui_shared.obj
 0003:00003a60       _itemParseKeywords         300a4a60     ui_shared.obj
 0003:00003d58       _menuParseKeywords         300a4d58     ui_shared.obj
 0003:000040ec       __fltused                  300a50ec     LIBCMTD:fpinit.obj
 0003:000040f0       __ldused                   300a50f0     LIBCMTD:fpinit.obj
 0003:000040f4       __FPinit                   300a50f4     LIBCMTD:fpinit.obj
 0003:000040f8       __FPmtinit                 300a50f8     LIBCMTD:fpinit.obj
 0003:000040fc       __FPmtterm                 300a50fc     LIBCMTD:fpinit.obj
 0003:00004190       __aexit_rtn                300a5190     LIBCMTD:dllcrt0.obj
 0003:00004194       __cfltcvt_tab              300a5194     LIBCMTD:cmiscdat.obj
 0003:000041b0       __indefinite               300a51b0     LIBCMTD:87disp.obj
 0003:000041ba       __piby2                    300a51ba     LIBCMTD:87disp.obj
 0003:000041e0       __pctype                   300a51e0     LIBCMTD:ctype.obj
 0003:000041e4       __pwctype                  300a51e4     LIBCMTD:ctype.obj
 0003:000041e8       __ctype                    300a51e8     LIBCMTD:ctype.obj
 0003:000043ec       ___mb_cur_max              300a53ec     LIBCMTD:nlsdata1.obj
 0003:000043f0       ___decimal_point           300a53f0     LIBCMTD:nlsdata1.obj
 0003:000043f4       ___decimal_point_length    300a53f4     LIBCMTD:nlsdata1.obj
 0003:000044d0       __d_inf                    300a54d0     LIBCMTD:util.obj
 0003:000044d8       __d_ind                    300a54d8     LIBCMTD:util.obj
 0003:000044e0       __d_max                    300a54e0     LIBCMTD:util.obj
 0003:000044e8       __d_min                    300a54e8     LIBCMTD:util.obj
 0003:000044f0       __d_mzero                  300a54f0     LIBCMTD:util.obj
 0003:00004510       ___tlsindex                300a5510     LIBCMTD:tidtable.obj
 0003:00004514       ___nullstring              300a5514     LIBCMTD:output.obj
 0003:00004518       ___wnullstring             300a5518     LIBCMTD:output.obj
 0003:0000451c       __crtAssertBusy            300a551c     LIBCMTD:dbgrpt.obj
 0003:00004520       __CrtDbgMode               300a5520     LIBCMTD:dbgrpt.obj
 0003:0000452c       __CrtDbgFile               300a552c     LIBCMTD:dbgrpt.obj
 0003:00004550       __OP_ATAN2jmptab           300a5550     LIBCMTD:87triga.obj
 0003:000045a0       __iob                      300a55a0     LIBCMTD:_file.obj
 0003:00004820       __locktable                300a5820     LIBCMTD:mlock.obj
 0003:000049f0       ___lc_category             300a59f0     LIBCMTD:setlocal.obj
 0003:00004a38       ___badioinfo               300a5a38     LIBCMTD:ioinit.obj
 0003:00004a5c       __crtDbgFlag               300a5a5c     LIBCMTD:dbgheap.obj
 0003:00004a64       __crtBreakAlloc            300a5a64     LIBCMTD:dbgheap.obj
 0003:00004a80       __amblksiz                 300a5a80     LIBCMTD:heapinit.obj
 0003:00004cb0       __matherr_flag             300a5cb0     LIBCMTD:matherr.obj
 0003:00004cb8       __XcptActTab               300a5cb8     LIBCMTD:winxfltr.obj
 0003:00004d30       __First_FPE_Indx           300a5d30     LIBCMTD:winxfltr.obj
 0003:00004d34       __Num_FPE                  300a5d34     LIBCMTD:winxfltr.obj
 0003:00004d38       __XcptActTabSize           300a5d38     LIBCMTD:winxfltr.obj
 0003:00004d3c       __XcptActTabCount          300a5d3c     LIBCMTD:winxfltr.obj
 0003:00004d40       ___rgLocInfo               300a5d40     LIBCMTD:getqloc.obj
 0003:000051e4       ___rglangidNotDefault      300a61e4     LIBCMTD:getqloc.obj
 0003:000051f8       ___rg_country              300a61f8     LIBCMTD:getqloc.obj
 0003:000052b0       ___rg_language             300a62b0     LIBCMTD:getqloc.obj
 0003:000054b8       __NLG_Destination          300a64b8     LIBCMTD:exsup.obj
 0003:000054c8       __pfnAllocHook             300a64c8     LIBCMTD:dbghook.obj
 0003:000054cc       ___sbh_threshold           300a64cc     LIBCMTD:sbheap.obj
 0003:000055c8       ___lc_time_curr            300a65c8     LIBCMTD:strftime.obj
 0003:000055d0       ___lc_time_c               300a65d0     LIBCMTD:strftime.obj
 0003:00005680       ___lconv_static_decimal    300a6680     LIBCMTD:lconv.obj
 0003:00005688       ___lconv_c                 300a6688     LIBCMTD:lconv.obj
 0003:000056b8       ___lconv                   300a66b8     LIBCMTD:lconv.obj
 0003:000056c0       __pow10pos                 300a66c0     LIBCMTD:constpow.obj
 0003:00005820       __pow10neg                 300a6820     LIBCMTD:constpow.obj
 0003:0000597c       __timezone                 300a697c     LIBCMTD:timeset.obj
 0003:00005980       __daylight                 300a6980     LIBCMTD:timeset.obj
 0003:00005984       __dstbias                  300a6984     LIBCMTD:timeset.obj
 0003:00005a08       __tzname                   300a6a08     LIBCMTD:timeset.obj
 0003:00005a2c       __lpdays                   300a6a2c     LIBCMTD:days.obj
 0003:00005a60       __days                     300a6a60     LIBCMTD:days.obj
 0003:000060c0       _c_pmove                   300a70c0     bg_pmove.obj
 0003:000086f8       _initparticles             300a96f8     cg_marks.obj
 0003:0000986c       _vec3_origin               300aa86c     q_math.obj
 0003:001881b4       _DC                        302291b4     ui_shared.obj
 0003:001881c8       _menuCount                 302291c8     ui_shared.obj
 0003:001881cc       _openMenuCount             302291cc     ui_shared.obj
 0003:001cf530       ___fastflag                30270530     LIBCMTD:fpinit.obj
 0003:001cf534       __adjust_fdiv              30270534     LIBCMTD:fpinit.obj
 0003:001cf53c       __aenvptr                  3027053c     LIBCMTD:dllcrt0.obj
 0003:001cf540       __wenvptr                  30270540     LIBCMTD:dllcrt0.obj
 0003:001cf544       ___error_mode              30270544     LIBCMTD:dllcrt0.obj
 0003:001cf548       ___app_type                30270548     LIBCMTD:dllcrt0.obj
 0003:001cf550       __umaskval                 30270550     LIBCMTD:crt0dat.obj
 0003:001cf554       __osver                    30270554     LIBCMTD:crt0dat.obj
 0003:001cf558       __winver                   30270558     LIBCMTD:crt0dat.obj
 0003:001cf55c       __winmajor                 3027055c     LIBCMTD:crt0dat.obj
 0003:001cf560       __winminor                 30270560     LIBCMTD:crt0dat.obj
 0003:001cf564       ___argc                    30270564     LIBCMTD:crt0dat.obj
 0003:001cf568       ___argv                    30270568     LIBCMTD:crt0dat.obj
 0003:001cf56c       ___wargv                   3027056c     LIBCMTD:crt0dat.obj
 0003:001cf570       __environ                  30270570     LIBCMTD:crt0dat.obj
 0003:001cf574       ___initenv                 30270574     LIBCMTD:crt0dat.obj
 0003:001cf578       __wenviron                 30270578     LIBCMTD:crt0dat.obj
 0003:001cf57c       ___winitenv                3027057c     LIBCMTD:crt0dat.obj
 0003:001cf580       __pgmptr                   30270580     LIBCMTD:crt0dat.obj
 0003:001cf584       __wpgmptr                  30270584     LIBCMTD:crt0dat.obj
 0003:001cf588       __exitflag                 30270588     LIBCMTD:crt0dat.obj
 0003:001cf58c       __C_Termination_Done       3027058c     LIBCMTD:crt0dat.obj
 0003:001cf590       __C_Exit_Done              30270590     LIBCMTD:crt0dat.obj
 0003:001cf5b8       __cflush                   302705b8     LIBCMTD:_file.obj
 0003:001cf62c       ___lc_handle               3027062c     LIBCMTD:nlsdata2.obj
 0003:001cf644       ___lc_codepage             30270644     LIBCMTD:nlsdata2.obj
 0003:001cf648       ___lc_collate_cp           30270648     LIBCMTD:nlsdata2.obj
 0003:001cf76c       __adbgmsg                  3027076c     LIBCMTD:crt0msg.obj
 0003:001cf774       __stdbuf                   30270774     LIBCMTD:_sftbuf.obj
 0003:001cf77c       ___lc_time_intl            3027077c     LIBCMTD:inittime.obj
 0003:001cf798       ___lc_id                   30270798     LIBCMTD:nlsdata3.obj
 0003:001cf7e0       __newmode                  302707e0     LIBCMTD:_newmode.obj
 0003:001cf7e4       ?_pnhHeap@@3P6AHI@ZA       302707e4     LIBCMTD:handler.obj
 0003:001cf7f4       ___lconv_static_null       302707f4     LIBCMTD:lconv.obj
 0003:001cf8e0       _menuStack                 302708e0     <common>
 0003:001d1cc0       _Menus                     30272cc0     <common>
 0003:001dbdc0       _menuParseKeywordHash      3027cdc0     <common>
 0003:001dc5c0       _g_nameBind1               3027d5c0     <common>
 0003:001dc5e0       _g_nameBind2               3027d5e0     <common>
 0003:001dc600       _itemParseKeywordHash      3027d600     <common>
 0003:001dce00       _voiceChatLists            3027de00     <common>
 0003:00474c00       _voiceChatBuffer           30515c00     <common>
 0003:00477300       _headModelVoiceChat        30518300     <common>
 0003:00478400       _rforward                  30519400     <common>
 0003:0048212c       _oldtime                   3052312c     <common>
 0003:00482130       _pvright                   30523130     <common>
 0003:00482140       _pvforward                 30523140     <common>
 0003:00482150       _rup                       30523150     <common>
 0003:00482160       _particles                 30523160     <common>
 0003:004a1160       _rright                    30542160     <common>
 0003:004a116c       _cg_freeMarkPolys          3054216c     <common>
 0003:004a1180       _cg_activeMarkPolys        30542180     <common>
 0003:004a12a0       _cg_markPolys              305422a0     <common>
 0003:004b32a0       _free_particles            305542a0     <common>
 0003:004b32b0       _pvup                      305542b0     <common>
 0003:004b32bc       _active_particles          305542bc     <common>
 0003:004b32c0       _cg_bigFont                305542c0     <common>
 0003:004e6de0       _cg_teamChatsOnly          30587de0     <common>
 0003:004e6f00       _cg_deferPlayers           30587f00     <common>
 0003:004e7020       _cg_timescaleFadeSpeed     30588020     <common>
 0003:004e7140       _cg_crosshairSize          30588140     <common>
 0003:004e7260       _cg_teamChatTime           30588260     <common>
 0003:004e7380       _cg_simpleItems            30588380     <common>
 0003:004e74a0       _cgs                       305884a0     <common>
 0003:0050cbc0       _cg_drawTeamOverlay        305adbc0     <common>
 0003:0050cce0       _cg_predictItems           305adce0     <common>
 0003:0050ce00       _cg_showmiss               305ade00     <common>
 0003:0050cf20       _cg_tracerChance           305adf20     <common>
 0003:0050d040       _cg_noTaunt                305ae040     <common>
 0003:0050d160       _cg_drawFPS                305ae160     <common>
 0003:0050d280       _cg_viewsize               305ae280     <common>
 0003:0050d3a0       _cg_oldRail                305ae3a0     <common>
 0003:0050d4c0       _cg_drawCrosshair          305ae4c0     <common>
 0003:0050d5e0       _cg_crosshairHealth        305ae5e0     <common>
 0003:0050d700       _cg_gun_x                  305ae700     <common>
 0003:0050d820       _cg_gun_y                  305ae820     <common>
 0003:0050d940       _pmove_msec                305ae940     <common>
 0003:0050da60       _cg_errorDecay             305aea60     <common>
 0003:0050db80       _cg_smallFont              305aeb80     <common>
 0003:0050dca0       _cg_crosshairX             305aeca0     <common>
 0003:0050ddc0       _cg_timescale              305aedc0     <common>
 0003:0050dee0       _cg_drawAttacker           305aeee0     <common>
 0003:0050e000       _cg_autoswitch             305af000     <common>
 0003:0050e120       _cg_tracerLength           305af120     <common>
 0003:0050e240       _cg_noProjectileTrail      305af240     <common>
 0003:0050e360       _cg_gun_z                  305af360     <common>
 0003:0050e480       _cg_stats                  305af480     <common>
 0003:0050e5a0       _cg_zoomFov                305af5a0     <common>
 0003:0050e6c0       _cg_forceModel             305af6c0     <common>
 0003:0050e7e0       _cg_scorePlum              305af7e0     <common>
 0003:0050e900       _cg_animSpeed              305af900     <common>
 0003:0050ea20       _cg_synchronousClients     305afa20     <common>
 0003:0050eb40       _cg_debugEvents            305afb40     <common>
 0003:0050ec60       _cg_thirdPerson            305afc60     <common>
 0003:0050ed80       _cg_swingSpeed             305afd80     <common>
 0003:0050eea0       _cg_addMarks               305afea0     <common>
 0003:0050efc0       _cg_blood                  305affc0     <common>
 0003:0050f0e0       _cg_cameraMode             305b00e0     <common>
 0003:0050f200       _cg_teamChatHeight         305b0200     <common>
 0003:0050f320       _cg_timescaleFadeEnd       305b0320     <common>
 0003:0050f440       _cg_bobup                  305b0440     <common>
 0003:0050f560       _cg_drawAmmoWarning        305b0560     <common>
 0003:0050f680       _cg_noVoiceChats           305b0680     <common>
 0003:0050f7a0       _cg_paused                 305b07a0     <common>
 0003:0050f8c0       _cg_oldRocket              305b08c0     <common>
 0003:0050f9e0       _pmove_fixed               305b09e0     <common>
 0003:0050fb00       _cg_noVoiceText            305b0b00     <common>
 0003:0050fc20       _cg_draw3dIcons            305b0c20     <common>
 0003:0050fd40       _cg_thirdPersonAngle       305b0d40     <common>
 0003:0050fe60       _cg_drawFriend             305b0e60     <common>
 0003:0050ff80       _cg_drawGun                305b0f80     <common>
 0003:005100a0       _cg_stereoSeparation       305b10a0     <common>
 0003:005101c0       _cg_debugAnim              305b11c0     <common>
 0003:005102e0       _cg_runpitch               305b12e0     <common>
 0003:00510400       _cg_oldPlasma              305b1400     <common>
 0003:00510520       _cg                        305b1520     <common>
 0003:0052ed60       _cg_teamOverlayUserinfo    305cfd60     <common>
 0003:0052ee80       _cg_trueLightning          305cfe80     <common>
 0003:0052efa0       _cg_drawCrosshairNames     305cffa0     <common>
 0003:0052f0c0       _cg_railTrailTime          305d00c0     <common>
 0003:0052f1e0       _cg_tracerWidth            305d01e0     <common>
 0003:0052f300       _cg_items                  305d0300     <common>
 0003:00530b00       _cg_cameraOrbitDelay       305d1b00     <common>
 0003:00530c20       _cg_drawTimer              305d1c20     <common>
 0003:00530d40       _cg_noPlayerAnims          305d1d40     <common>
 0003:00530e60       _cg_weapons                305d1e60     <common>
 0003:005316e0       _cg_pmove_msec             305d26e0     <common>
 0003:00531800       _cg_debugPosition          305d2800     <common>
 0003:00531920       _cg_smoothClients          305d2920     <common>
 0003:00531a40       _cg_draw2D                 305d2a40     <common>
 0003:00531b60       _cg_bobpitch               305d2b60     <common>
 0003:00531c80       _cg_fov                    305d2c80     <common>
 0003:00531da0       _cg_buildScript            305d2da0     <common>
 0003:00531ec0       _cg_drawSnapshot           305d2ec0     <common>
 0003:00531fe0       _cg_centertime             305d2fe0     <common>
 0003:00532100       _cg_thirdPersonRange       305d3100     <common>
 0003:00532220       _cg_gibs                   305d3220     <common>
 0003:00532340       _cg_crosshairY             305d3340     <common>
 0003:00532460       _cg_drawIcons              305d3460     <common>
 0003:00532580       _cg_cameraOrbit            305d3580     <common>
 0003:005326a0       _cg_drawStatus             305d36a0     <common>
 0003:005327c0       _cg_hudFiles               305d37c0     <common>
 0003:005328e0       _cg_gun_frame              305d38e0     <common>
 0003:00532a00       _cg_ignore                 305d3a00     <common>
 0003:00532b20       _cg_runroll                305d3b20     <common>
 0003:00532c40       _cg_drawRewards            305d3c40     <common>
 0003:00532d60       _cg_bobroll                305d3d60     <common>
 0003:00532e80       _cg_nopredict              305d3e80     <common>
 0003:00532fa0       _cg_shadows                305d3fa0     <common>
 0003:005330c0       _cg_footsteps              305d40c0     <common>
 0003:005331e0       _cg_entities               305d41e0     <common>
 0003:005e91e0       _cg_brassTime              3068a1e0     <common>
 0003:005e9300       _cg_lagometer              3068a300     <common>
 0003:005e9420       _cg_activeLocalEntities    3068a420     <common>
 0003:005f0a54       _cg_freeLocalEntities      30691a54     <common>
 0003:005f0a60       _cg_localEntities          30691a60     <common>
 0003:00615260       _sortedTeamPlayers         306b6260     <common>
 0003:006154e0       _systemChat                306b64e0     <common>
 0003:006155e0       _lagometer                 306b65e0     <common>
 0003:00615be8       _numSortedTeamPlayers      306b6be8     <common>
 0003:00615c00       _teamChat1                 306b6c00     <common>
 0003:00615d00       _teamChat2                 306b6d00     <common>
 0003:00615e00       _pml                       306b6e00     <common>
 0003:00615eb0       _pm                        306b6eb0     <common>
 0003:00615eb4       ___alternate_form          306b6eb4     <common>
 0003:00615ec4       ___no_lead_zeros           306b6ec4     <common>
 0003:00615ec8       ___mbcodepage              306b6ec8     <common>
 0003:00615f40       ___mbulinfo                306b6f40     <common>
 0003:00615f4c       ___ismbcodepage            306b6f4c     <common>
 0003:00615f60       __mbcasemap                306b6f60     <common>
 0003:00616060       __mbctype                  306b7060     <common>
 0003:00616164       ___mblcid                  306b7164     <common>
 0003:00616168       ___sbh_sizeHeaderList      306b7168     <common>
 0003:00616178       ___sbh_indGroupDefer       306b7178     <common>
 0003:0061617c       ___sbh_pHeaderScan         306b717c     <common>
 0003:00616180       ___sbh_pHeaderDefer        306b7180     <common>
 0003:00616184       ___sbh_cntHeaderList       306b7184     <common>
 0003:00616188       ___sbh_pHeaderList         306b7188     <common>
 0003:0061618c       __crtheap                  306b718c     <common>
 0003:00616198       __pfnDumpClient            306b7198     <common>
 0003:006161c0       ___pioinfo                 306b71c0     <common>
 0003:006162fc       __nhandle                  306b72fc     <common>
 0003:00616300       ___setlc_active            306b7300     <common>
 0003:00616310       ___unguarded_readlc_active 306b7310     <common>
 0003:00616314       ___piob                    306b7314     <common>
 0003:00616660       __bufin                    306b7660     <common>
 0003:00617660       __nstream                  306b8660     <common>
 0003:00617664       ___env_initialized         306b8664     <common>
 0003:00617674       ___mbctype_initialized     306b8674     <common>
 0003:00617678       ___onexitend               306b8678     <common>
 0003:0061767c       ___onexitbegin             306b867c     <common>
 0003:00617680       __pfnReportHook            306b8680     <common>
 0003:0061768c       __acmdln                   306b868c     <common>
 0003:0061769c       __pRawDllMain              306b869c     <common>
 0004:00000000       __IMPORT_DESCRIPTOR_KERNEL32 306b9000     kernel32:KERNEL32.dll
 0004:00000014       __NULL_IMPORT_DESCRIPTOR   306b9014     kernel32:KERNEL32.dll
 0004:000001b4       __imp__GetModuleFileNameA@12 306b91b4     kernel32:KERNEL32.dll
 0004:000001b8       __imp__InterlockedDecrement@4 306b91b8     kernel32:KERNEL32.dll
 0004:000001bc       __imp__InterlockedIncrement@4 306b91bc     kernel32:KERNEL32.dll
 0004:000001c0       __imp__GetCommandLineA@0   306b91c0     kernel32:KERNEL32.dll
 0004:000001c4       __imp__GetVersion@0        306b91c4     kernel32:KERNEL32.dll
 0004:000001c8       __imp__GetProcAddress@8    306b91c8     kernel32:KERNEL32.dll
 0004:000001cc       __imp__GetModuleHandleA@4  306b91cc     kernel32:KERNEL32.dll
 0004:000001d0       __imp__RaiseException@16   306b91d0     kernel32:KERNEL32.dll
 0004:000001d4       __imp__GetCurrentThreadId@0 306b91d4     kernel32:KERNEL32.dll
 0004:000001d8       __imp__TlsSetValue@8       306b91d8     kernel32:KERNEL32.dll
 0004:000001dc       __imp__TlsAlloc@0          306b91dc     kernel32:KERNEL32.dll
 0004:000001e0       __imp__TlsFree@4           306b91e0     kernel32:KERNEL32.dll
 0004:000001e4       __imp__SetLastError@4      306b91e4     kernel32:KERNEL32.dll
 0004:000001e8       __imp__TlsGetValue@4       306b91e8     kernel32:KERNEL32.dll
 0004:000001ec       __imp__GetLastError@0      306b91ec     kernel32:KERNEL32.dll
 0004:000001f0       __imp__GetCurrentThread@0  306b91f0     kernel32:KERNEL32.dll
 0004:000001f4       __imp__DebugBreak@0        306b91f4     kernel32:KERNEL32.dll
 0004:000001f8       __imp__GetStdHandle@4      306b91f8     kernel32:KERNEL32.dll
 0004:000001fc       __imp__WriteFile@20        306b91fc     kernel32:KERNEL32.dll
 0004:00000200       __imp__OutputDebugStringA@4 306b9200     kernel32:KERNEL32.dll
 0004:00000204       __imp__LoadLibraryA@4      306b9204     kernel32:KERNEL32.dll
 0004:00000208       __imp__ExitProcess@4       306b9208     kernel32:KERNEL32.dll
 0004:0000020c       __imp__TerminateProcess@8  306b920c     kernel32:KERNEL32.dll
 0004:00000210       __imp__GetCurrentProcess@0 306b9210     kernel32:KERNEL32.dll
 0004:00000214       __imp__SetConsoleCtrlHandler@8 306b9214     kernel32:KERNEL32.dll
 0004:00000218       __imp__EnterCriticalSection@4 306b9218     kernel32:KERNEL32.dll
 0004:0000021c       __imp__LeaveCriticalSection@4 306b921c     kernel32:KERNEL32.dll
 0004:00000220       __imp__InitializeCriticalSection@4 306b9220     kernel32:KERNEL32.dll
 0004:00000224       __imp__DeleteCriticalSection@4 306b9224     kernel32:KERNEL32.dll
 0004:00000228       __imp__FatalAppExitA@8     306b9228     kernel32:KERNEL32.dll
 0004:0000022c       __imp__Sleep@4             306b922c     kernel32:KERNEL32.dll
 0004:00000230       __imp__WideCharToMultiByte@32 306b9230     kernel32:KERNEL32.dll
 0004:00000234       __imp__MultiByteToWideChar@24 306b9234     kernel32:KERNEL32.dll
 0004:00000238       __imp__LCMapStringA@24     306b9238     kernel32:KERNEL32.dll
 0004:0000023c       __imp__LCMapStringW@24     306b923c     kernel32:KERNEL32.dll
 0004:00000240       __imp__SetHandleCount@4    306b9240     kernel32:KERNEL32.dll
 0004:00000244       __imp__GetFileType@4       306b9244     kernel32:KERNEL32.dll
 0004:00000248       __imp__GetStartupInfoA@4   306b9248     kernel32:KERNEL32.dll
 0004:0000024c       __imp__IsBadWritePtr@8     306b924c     kernel32:KERNEL32.dll
 0004:00000250       __imp__IsBadReadPtr@8      306b9250     kernel32:KERNEL32.dll
 0004:00000254       __imp__HeapValidate@12     306b9254     kernel32:KERNEL32.dll
 0004:00000258       __imp__FreeEnvironmentStringsA@4 306b9258     kernel32:KERNEL32.dll
 0004:0000025c       __imp__FreeEnvironmentStringsW@4 306b925c     kernel32:KERNEL32.dll
 0004:00000260       __imp__GetEnvironmentStrings@0 306b9260     kernel32:KERNEL32.dll
 0004:00000264       __imp__GetEnvironmentStringsW@0 306b9264     kernel32:KERNEL32.dll
 0004:00000268       __imp__HeapDestroy@4       306b9268     kernel32:KERNEL32.dll
 0004:0000026c       __imp__HeapCreate@12       306b926c     kernel32:KERNEL32.dll
 0004:00000270       __imp__HeapFree@12         306b9270     kernel32:KERNEL32.dll
 0004:00000274       __imp__VirtualFree@12      306b9274     kernel32:KERNEL32.dll
 0004:00000278       __imp__GetStringTypeA@20   306b9278     kernel32:KERNEL32.dll
 0004:0000027c       __imp__GetStringTypeW@16   306b927c     kernel32:KERNEL32.dll
 0004:00000280       __imp__UnhandledExceptionFilter@4 306b9280     kernel32:KERNEL32.dll
 0004:00000284       __imp__SetFilePointer@16   306b9284     kernel32:KERNEL32.dll
 0004:00000288       __imp__FlushFileBuffers@4  306b9288     kernel32:KERNEL32.dll
 0004:0000028c       __imp__GetCPInfo@8         306b928c     kernel32:KERNEL32.dll
 0004:00000290       __imp__IsValidLocale@8     306b9290     kernel32:KERNEL32.dll
 0004:00000294       __imp__IsValidCodePage@4   306b9294     kernel32:KERNEL32.dll
 0004:00000298       __imp__GetLocaleInfoA@16   306b9298     kernel32:KERNEL32.dll
 0004:0000029c       __imp__EnumSystemLocalesA@8 306b929c     kernel32:KERNEL32.dll
 0004:000002a0       __imp__GetUserDefaultLCID@0 306b92a0     kernel32:KERNEL32.dll
 0004:000002a4       __imp__GetVersionExA@4     306b92a4     kernel32:KERNEL32.dll
 0004:000002a8       __imp__RtlUnwind@16        306b92a8     kernel32:KERNEL32.dll
 0004:000002ac       __imp__HeapAlloc@12        306b92ac     kernel32:KERNEL32.dll
 0004:000002b0       __imp__HeapReAlloc@16      306b92b0     kernel32:KERNEL32.dll
 0004:000002b4       __imp__VirtualAlloc@16     306b92b4     kernel32:KERNEL32.dll
 0004:000002b8       __imp__GetACP@0            306b92b8     kernel32:KERNEL32.dll
 0004:000002bc       __imp__GetOEMCP@0          306b92bc     kernel32:KERNEL32.dll
 0004:000002c0       __imp__SetStdHandle@8      306b92c0     kernel32:KERNEL32.dll
 0004:000002c4       __imp__CloseHandle@4       306b92c4     kernel32:KERNEL32.dll
 0004:000002c8       __imp__GetTimeZoneInformation@4 306b92c8     kernel32:KERNEL32.dll
 0004:000002cc       __imp__GetLocaleInfoW@16   306b92cc     kernel32:KERNEL32.dll
 0004:000002d0       __imp__CompareStringA@24   306b92d0     kernel32:KERNEL32.dll
 0004:000002d4       __imp__CompareStringW@24   306b92d4     kernel32:KERNEL32.dll
 0004:000002d8       __imp__SetEnvironmentVariableA@8 306b92d8     kernel32:KERNEL32.dll
 0004:000002dc       \177KERNEL32_NULL_THUNK_DATA 306b92dc     kernel32:KERNEL32.dll

 entry point at        0001:0004a3c0

